(dp1
S'output'
p2
S'<type \'exceptions.SyntaxError\'> define_table argument is not a Field or Table: <select><option value="estado">estado</option></select>'
p3
sS'layer'
p4
S'/opt/web2py/applications/storecall/controllers/chamada.py'
p5
sS'code'
p6
S"estado = ('Acre/AC','Alagoas/AL','Amap\xc3\xa1/AP','Amazonas/AM','Bahia/BA','Cear\xc3\xa1/CE','Distrito Federal/DF','Esp\xc3\xadrito Santo/ES','Goi\xc3\xa1s/GO','Maranh\xc3\xa3o/MA','Mato Grosso/MT','Mato Grosso do Sul/MS','Minas Gerais/MG','Par\xc3\xa1/PA','Para\xc3\xadba/PB','Paran\xc3\xa1/PR','Pernambuco/PE','Piau\xc3\xad/PI','Rio de Janeiro/RJ','Rio Grande do Norte/RN','Rio Grande do Sul/RS','Rond\xc3\xb4nia/RO','Roraima/RR','Santa Catarina/SC','S\xc3\xa3o Paulo/SP','Sergipe/SE','Tocantins/TO')\ndef index():\n\tresponse.flash = T('Acionamentos')\n\treturn dict(message=T('Cadastre novos acionamentos'))\n#,fields=['protocolo','identificador','nome','email','telefone','cep','estado','sistema', 'data_acionamento', 'atendente_acionamento', 'atendente_protocolo', 'data_protocolo','demanda'],submit_button='Salvar'\ndef nova_chamada():\n\tform = SQLFORM(Chamadas)\n\tform.append(SQLFORM.factory(Chamadas.estado,\n\t\tSELECT('estado', label='Estados', requires=IS_IN_SET(range(1,27),estado, multiple=True), type='select')))\n\n\tif form.process().accepted:\n\t\tsession.flash = 'Novo acionamento registrado: %s' % form.vars.identificador\n\t\tredirect(URL('nova_chamada'))\n\telif form.errors:\n\t\tresponse.flash = 'Erros no formul\xc3\xa1rio!'\n\telse:\n\t\tif  not response.flash:\n\t\t\tresponse.flash = 'Preencha o formul\xc3\xa1rio!'\n\treturn dict(form=form)\n \ndef ver_chamada():\n\tgrid = SQLFORM.grid(Chamadas)\n\treturn dict(grid=grid)\n\t\nresponse._vars=response._caller(nova_chamada)\n"
p7
sS'snapshot'
p8
(dp9
sS'traceback'
p10
S'Traceback (most recent call last):\n  File "/opt/web2py/gluon/restricted.py", line 227, in restricted\n    exec ccode in environment\n  File "/opt/web2py/applications/storecall/controllers/chamada.py", line 25, in <module>\n  File "/opt/web2py/gluon/globals.py", line 417, in <lambda>\n    self._caller = lambda f: f()\n  File "/opt/web2py/applications/storecall/controllers/chamada.py", line 9, in nova_chamada\n    SELECT(\'estado\', label=\'Estados\', requires=IS_IN_SET(range(1,27),estado, multiple=True), type=\'select\')))\n  File "/opt/web2py/gluon/sqlhtml.py", line 1808, in factory\n    return SQLFORM(DAL(None).define_table(table_name, *fields),\n  File "/opt/web2py/gluon/packages/dal/pydal/base.py", line 834, in define_table\n    table = self.lazy_define_table(tablename,*fields,**args)\n  File "/opt/web2py/gluon/packages/dal/pydal/base.py", line 851, in lazy_define_table\n    table = table_class(self, tablename, *fields, **args)\n  File "/opt/web2py/gluon/packages/dal/pydal/objects.py", line 299, in __init__\n    field\nSyntaxError: define_table argument is not a Field or Table: <select><option value="estado">estado</option></select>\n'
p11
s.