(dp1
S'output'
p2
S"<type 'exceptions.TypeError'> not all arguments converted during string formatting"
p3
sS'layer'
p4
S'/opt/web2py/applications/storecall/views/chamada/nova_chamada.html'
p5
sS'code'
p6
S'response.write(\'\\n<!-form publicar-->\\n\\n\', escape=False)\nresponse.write(\'<!DOCTYPE html>\\n<!--[if (gt IE 9)|!(IE)]><!--> <html class="no-js" lang="\', escape=False)\nresponse.write(T.accepted_language or \'en\')\nresponse.write(\'"> <!--<![endif]-->\\n  <head>\\n    <meta charset="utf-8">\\n    <!-- www.phpied.com/conditional-comments-block-downloads/ -->\\n    <!-- Always force latest IE rendering engine\\n         (even in intranet) & Chrome Frame\\n         Remove this if you use the .htaccess -->\\n    <meta http-equiv="X-UA-Compatible" content="IE=edge\', escape=False)\nresponse.write(not request.is_local and \',chrome=1\' or \'\')\nresponse.write(\'">\\n    <!--  Mobile Viewport Fix\\n          j.mp/mobileviewport & davidbcalhoun.com/2010/viewport-metatag\\n          device-width: Occupy full width of the screen in its current orientation\\n          initial-scale = 1.0 retains dimensions instead of zooming out if page height > device height\\n          user-scalable = yes allows the user to zoom in -->\\n    <meta name="viewport" content="width=device-width, initial-scale=1.0">\\n    <title>\', escape=False)\nresponse.write(response.title or request.application)\nresponse.write(\'</title>\\n    <!-- http://dev.w3.org/html5/markup/meta.name.html -->\\n    <meta name="application-name" content="\', escape=False)\nresponse.write(request.application)\nresponse.write(\'">\\n    <!-- Speaking of Google, don\\\'t forget to set your site up:\\n         http://google.com/webmasters -->\\n    <meta name="google-site-verification" content="">\\n    <!-- include stylesheets -->\\n    <link rel="stylesheet" href="\', escape=False)\nresponse.write(URL(\'static\',\'css/bootstrap.min.css\'))\nresponse.write(\'"/>\\n    <link rel="stylesheet" href="\', escape=False)\nresponse.write(URL(\'static\',\'css/web2py-bootstrap3.css\'))\nresponse.write(\'"/>\\n    <link rel="shortcut icon" href="\', escape=False)\nresponse.write(URL(\'static\',\'images/favicon.ico\'))\nresponse.write(\'" type="image/x-icon">\\n    <link rel="apple-touch-icon" href="\', escape=False)\nresponse.write(URL(\'static\',\'images/favicon.png\'))\nresponse.write(\'">\\n    <!-- All JavaScript at the bottom, except for Modernizr which enables\\n         HTML5 elements & feature detects -->\\n    <script src="\', escape=False)\nresponse.write(URL(\'static\',\'js/modernizr-2.8.3.min.js\'))\nresponse.write(\'"></script>\\n    <!--[if lt IE 9]>\\n        <script src="\', escape=False)\nresponse.write(URL(\'static\',\'js/respond-1.4.2.min.js\'))\nresponse.write(\'"></script>\\n        <![endif]-->\\n    <!-- Favicons -->\\n    \', escape=False)\nresponse.write(\'<script type="text/javascript"><!--\\n    // These variables are used by the web2py_ajax_init function in web2py_ajax.js (which is loaded below).\\n    var w2p_ajax_confirm_message = "\', escape=False)\nresponse.write(T(\'Are you sure you want to delete this object?\'))\nresponse.write(\'";\\n    var w2p_ajax_disable_with_message = "\', escape=False)\nresponse.write(T(\'Working...\'))\nresponse.write(\'";\\n    var w2p_ajax_date_format = "\', escape=False)\nresponse.write(T(\'%Y-%m-%d\'))\nresponse.write(\'";\\n    var w2p_ajax_datetime_format = "\', escape=False)\nresponse.write(T(\'%Y-%m-%d %H:%M:%S\'))\nresponse.write(\'";\\n    var ajax_error_500 = \\\'\', escape=False)\nresponse.write(T.M(\'An error occured, please [[reload %s]] the page\') % URL(args=request.args, vars=request.get_vars))\nresponse.write("\'\\n    //--></script>\\n", escape=False)\nresponse.files.insert(0,URL(\'static\',\'js/jquery.js\'))\nresponse.files.insert(1,URL(\'static\',\'css/calendar.css\'))\nresponse.files.insert(2,URL(\'static\',\'js/calendar.js\'))\nresponse.files.insert(3,URL(\'static\',\'js/web2py.js\'))\nresponse.include_meta()\nresponse.include_files()\nresponse.write(\'\\n\', escape=False)\nresponse.write(\' <!-- this includes jquery.js, calendar.js/.css and web2py.js -->\\n    \', escape=False)\nresponse.write(\'\\n    \', escape=False)\n# using sidebars need to know what sidebar you want to use\nmc0 = \'col-md-12\'\nmc1 = \'col-md-9\'\nmc2 = \'col-md-6\'\nleft_sidebar_enabled = globals().get(\'left_sidebar_enabled\', False)\nright_sidebar_enabled = globals().get(\'right_sidebar_enabled\', False)\nmiddle_column = {0: mc0, 1: mc1, 2: mc2}[\n(left_sidebar_enabled and 1 or 0)+(right_sidebar_enabled and 1 or 0)]\nresponse.write(\'\\n  </head>\\n  <body>\\n    <!--[if lt IE 8]><p class="browserupgrade">You are using an <strong>outdated</strong> browser. Please <a href="http://browsehappy.com/">upgrade your browser</a> to improve your experience.</p><![endif]-->\\n    <div class="w2p_flash alert alert-dismissable">\', escape=False)\nresponse.write(response.flash or \'\')\nresponse.write(\'</div>\\n    <!-- Navbar ======================================= -->\\n    <nav class="navbar navbar-default navbar-fixed-top" role="navigation">\\n      <div class="container-fluid">\\n        <div class="navbar-header">\\n          <button type="button" class="navbar-toggle" data-toggle="collapse" data-target=".navbar-collapse">\\n            <span class="sr-only">Toggle navigation</span>\\n            <span class="icon-bar"></span>\\n            <span class="icon-bar"></span>\\n            <span class="icon-bar"></span>\\n          </button>\\n          \', escape=False)\nresponse.write(response.logo or \'\')\nresponse.write(\'\\n        </div>\\n        <div class="collapse navbar-collapse navbar-ex1-collapse">\\n          <ul class="nav navbar-nav navbar-right">\\n            \', escape=False)\nresponse.write(\'auth\' in globals() and auth.navbar(\'Welcome\',mode=\'dropdown\') or \'\')\nresponse.write(\'\\n          </ul>\\n          \', escape=False)\nif response.menu:\n    response.write(\'\\n          \', escape=False)\n    response.write(MENU(response.menu, _class=\'nav navbar-nav\',li_class=\'dropdown\',ul_class=\'dropdown-menu\'))\n    response.write(\'\\n          \', escape=False)\n    pass\nresponse.write(\'\\n        </div>\\n      </div>\\n    </nav>\\n    <!-- Masthead ===================================== -->    \\n    \', escape=False)\nresponse.write(\'\\n    \', escape=False)\nresponse.write(\'\\n    <!-- Main ========================================= -->\\n    <!-- Begin page content -->\\n    <div class="container-fluid main-container">\\n      \', escape=False)\nif left_sidebar_enabled:\n    response.write(\'\\n        <div class="col-md-3 left-sidebar">\\n            \', escape=False)\n    response.write(\'\\n            <h3>Left Sidebar</h3>\\n            <p></p>\\n            \', escape=False)\n    response.write(\'\\n        </div>\\n      \', escape=False)\n    pass\nresponse.write(\'\\n\\n      <div class="\', escape=False)\nresponse.write(middle_column)\nresponse.write(\'">\\n        \', escape=False)\nresponse.write(\'\\n        \', escape=False)\nresponse.write(\'\\n<h1>Registrar chamadas</h1>\\n\', escape=False)\nresponse.write(form)\nresponse.write(\'\\n\\n\', escape=False)\n\'\'\'\nresponse.write(\'\\n\', escape=False)\nresponse.write(form.custom.begin)\nresponse.write(\'\\n<!--Protocolo -->\\n\', escape=False)\nform.elements(\'#chamadas_protocolo\')[0][\'_placerholder\'] = "Protocolo"\nresponse.write(\'\\n\', escape=False)\nform.elements(\'#chamadas_protocolo\')[0][\'_disabled\'] = "true"\nresponse.write(\'\\n\', escape=False)\nresponse.write(LABEL(\'Protocolo: \', _class=\'test\', _id=\'protocolo\'))\nresponse.write(\'\\n\', escape=False)\nresponse.write(form.custom.widget.protocolo)\nresponse.write(\'\\n<!--data_acionamento-->\\n\', escape=False)\nform.elements(\'#chamadas_data_acionamento\')[0][\'_placerholder\'] = "00/00/00"\nresponse.write(\'\\n\', escape=False)\nform.elements(\'#chamadas_data_acionamento\')[0][\'_disabled\'] = "true"\nresponse.write(\'\\n\', escape=False)\nresponse.write(LABEL(\'Data acionamento: \', _class=\'test\', _id=\'data_acionamento\'))\nresponse.write(\'\\n\', escape=False)\nresponse.write(form.custom.widget.data_acionamento)\nresponse.write(\'\\n<!--atendente_acionamento-->\\n\', escape=False)\nform.elements(\'#chamadas_atendente_acionamento\')[0][\'_placerholder\'] = "Nome"\nresponse.write(\'\\n\', escape=False)\nform.elements(\'#chamadas_atendente_acionamento\')[0][\'_disabled\'] = "true"\nresponse.write(\'\\n\', escape=False)\nresponse.write(LABEL(\'Atendente acionamento: \', _class=\'test\', _id=\'atendente_acionamento\'))\nresponse.write(\'\\n\', escape=False)\nresponse.write(form.custom.widget.atendente_acionamento)\nresponse.write(\'\\n<!--data_protocolo-->\\n\', escape=False)\nform.elements(\'#chamadas_data_protocolo\')[0][\'_placerholder\'] = "Data:"\nresponse.write(\'\\n\', escape=False)\nform.elements(\'#chamadas_data_protocolo\')[0][\'_disabled\'] = "true"\nresponse.write(\'\\n\', escape=False)\nresponse.write(LABEL(\'Data protocolo: \', _class=\'test\', _id=\'data_protocolo\'))\nresponse.write(\'\\n\', escape=False)\nresponse.write(form.custom.widget.data_protocolo)\nresponse.write(\'\\t\\n<!--atendente_protocolo-->\\n\', escape=False)\nform.elements(\'#chamadas_atendente_protocolo\')[0][\'_placerholder\'] = "Nome"\nresponse.write(\'\\n\', escape=False)\nform.elements(\'#chamadas_atendente_protocolo\')[0][\'_disabled\'] = "true"\nresponse.write(\'\\n\', escape=False)\nresponse.write(LABEL(\'Atendente protocolo: \', _class=\'test\', _id=\'atendente_protocolo\'))\nresponse.write(\'\\n\', escape=False)\nresponse.write(form.custom.widget.atendente_protocolo)\nresponse.write(\'\\n<!--Nome -->\\n\', escape=False)\nform.elements(\'#chamadas_nome\')[0][\'_placerholder\'] = "nome"\nresponse.write(\'\\n\', escape=False)\nresponse.write(LABEL(\'Nome: \', _class=\'test\', _id=\'nome\'))\nresponse.write(\'\\n\', escape=False)\nresponse.write(form.custom.widget.nome)\nresponse.write(\'\\n<!--Email -->\\n\', escape=False)\nform.elements(\'#chamadas_email\')[0][\'_placerholder\'] = "email"\nresponse.write(\'\\n\', escape=False)\nform.elements(\'#chamadas_email\')[0][\'_type\'] = "email"\nresponse.write(\'\\n\', escape=False)\nresponse.write(LABEL(\'Email: \', _class=\'test\', _id=\'email\'))\nresponse.write(\'\\n\', escape=False)\nresponse.write(form.custom.widget.email)\nresponse.write(\'\\n<!--Telefone -->\\n\', escape=False)\nform.elements(\'#chamadas_telefone\')[0][\'_placeholder\'] = "DDD + N\xc3\xbamero"\nresponse.write(\'\\n\', escape=False)\nform.elements(\'#chamadas_telefone\')[0][\'_type\'] = "tel"\nresponse.write(\'\\n\', escape=False)\nresponse.write(LABEL(\'Telefone: \', _class=\'test\', _id=\'telefone\'))\nresponse.write(\'\\n\', escape=False)\nresponse.write(form.custom.widget.telefone)\nresponse.write(\'\\n<!--CEP -->\\n\', escape=False)\nform.elements(\'#chamadas_cep\')[0][\'_placerholder\'] = "cep"\nresponse.write(\'\\n\', escape=False)\nresponse.write(LABEL(\'CEP: \', _class=\'test\', _id=\'cep\'))\nresponse.write(\'\\n\', escape=False)\nresponse.write(form.custom.widget.cep)\nresponse.write(\'\\n<!--Estado -->\\n\', escape=False)\nform.elements(\'#chamadas_email\')[0][\'_type\'] = "select"\nresponse.write(\'\\n\', escape=False)\nform.elements(\'#chamadas_estado\')[0][\'_option\'] = "Estado"\nresponse.write(\'\\n\', escape=False)\nform.elements(\'#chamadas_estado\')[0][\'_placerholder\'] = "Estado"\nresponse.write(\'\\n\', escape=False)\nresponse.write(LABEL(\'Estado: \', _class=\'test\', _id=\'estado\'))\nresponse.write(\'\\n\', escape=False)\nresponse.write(form.custom.widget.estado)\nresponse.write(\'\\n<!--Sistema -->\\n\', escape=False)\nform.elements(\'#chamadas_sistema\')[0][\'_placerholder\'] = "Sistema"\nresponse.write(\'\\n\', escape=False)\nresponse.write(LABEL(\'Sistema: \', _class=\'test\', _id=\'sistema\'))\nresponse.write(\'\\n\', escape=False)\nresponse.write(form.custom.widget.sistema)\nresponse.write(\'\\n<!--Demanda -->\\n\', escape=False)\nform.elements(\'#chamadas_demanda\')[0][\'_placerholder\'] = "Demanda"\nresponse.write(\'\\n\', escape=False)\nresponse.write(LABEL(\'Demanda: \', _class=\'test\', _id=\'demanda\'))\nresponse.write(\'\\n\', escape=False)\nresponse.write(form.custom.widget.demanda)\nresponse.write(\'\\n\\n\', escape=False)\nresponse.write(form.custom.submit)\nresponse.write(\'\\n\', escape=False)\nresponse.write(form.custom.end)\nresponse.write(\'\\n\', escape=False)\n\'\'\'\nresponse.write(\'\\n        \', escape=False)\nresponse.write(\'\\n      </div>\\n\\n      \', escape=False)\nif right_sidebar_enabled:\n    response.write(\'\\n        <div class="col-md-3">\\n            \', escape=False)\n    response.write(\'\\n            <h3>Right Sidebar</h3>\\n            <p></p>\\n            \', escape=False)\n    response.write(\'\\n        </div>\\n      \', escape=False)\n    pass\nresponse.write(\'\\n\\n    </div>\\n\\n    \', escape=False)\nresponse.write(\' <!-- this is default footer -->      \\n    <footer class="footer">\\n      <div class="container-fluid">\\n        <div class="copyright pull-left">\', escape=False)\nresponse.write(T(\'Copyright\'))\nresponse.write(\' &#169; \', escape=False)\nresponse.write(request.now.year)\nresponse.write(\'</div>\\n          <div id="poweredBy" class="pull-right">\\n            \', escape=False)\nresponse.write(T(\'Powered by\'))\nresponse.write(\'\\n            <a href="http://www.web2py.com/">web2py</a>\\n          </div>\\n      </div>\\n    </footer>\\n    \', escape=False)\nresponse.write(\'\\n    <!-- The javascript =============================== -->\\n    <script src="\', escape=False)\nresponse.write(URL(\'static\',\'js/bootstrap.min.js\'))\nresponse.write(\'"></script>\\n    <script src="\', escape=False)\nresponse.write(URL(\'static\',\'js/web2py-bootstrap3.js\'))\nresponse.write(\'"></script>\\n    \', escape=False)\nresponse.write(\'\\n    \', escape=False)\nif response.google_analytics_id:\n    response.write(\'\\n    <!-- Analytics ==================================== -->\\n    <script src="\', escape=False)\n    response.write(URL(\'static\',\'js/analytics.min.js\'))\n    response.write(\'"></script>\\n    <script type="text/javascript">\\n      analytics.initialize({\\n      \\\'Google Analytics\\\':{trackingId:\\\'\', escape=False)\n    response.write(response.google_analytics_id)\n    response.write("\'}\\n      });\\n    </script>\\n    ", escape=False)\n    pass\nresponse.write(\'\\n    <!-- Share ============================y============ -->\\n    <script src="\', escape=False)\nresponse.write(URL(\'static\',\'js/share.js\',vars=dict(static=URL(\'static\',\'images\'))))\nresponse.write(\'"></script>\\n  </body>\\n</html>\\n\', escape=False)'
p7
sS'snapshot'
p8
(dp9
S'exception'
p10
(dp11
S'__hash__'
p12
S"<method-wrapper '__hash__' of exceptions.TypeError object>"
p13
sS'__setattr__'
p14
S"<method-wrapper '__setattr__' of exceptions.TypeError object>"
p15
sS'__reduce_ex__'
p16
S'<built-in method __reduce_ex__ of exceptions.TypeError object>'
p17
sS'__getslice__'
p18
S"<method-wrapper '__getslice__' of exceptions.TypeError object>"
p19
sS'__getitem__'
p20
S"<method-wrapper '__getitem__' of exceptions.TypeError object>"
p21
sS'__setstate__'
p22
S'<built-in method __setstate__ of exceptions.TypeError object>'
p23
sS'args'
p24
S"('not all arguments converted during string formatting',)"
p25
sS'__reduce__'
p26
S'<built-in method __reduce__ of exceptions.TypeError object>'
p27
sS'__str__'
p28
S"<method-wrapper '__str__' of exceptions.TypeError object>"
p29
sS'__format__'
p30
S'<built-in method __format__ of exceptions.TypeError object>'
p31
sS'__getattribute__'
p32
S"<method-wrapper '__getattribute__' of exceptions.TypeError object>"
p33
sS'__class__'
p34
S"<type 'exceptions.TypeError'>"
p35
sS'__unicode__'
p36
S'<built-in method __unicode__ of exceptions.TypeError object>'
p37
sS'__delattr__'
p38
S"<method-wrapper '__delattr__' of exceptions.TypeError object>"
p39
sS'__subclasshook__'
p40
S'<built-in method __subclasshook__ of type object>'
p41
sS'__repr__'
p42
S"<method-wrapper '__repr__' of exceptions.TypeError object>"
p43
sS'__dict__'
p44
S'{}'
p45
sS'__sizeof__'
p46
S'<built-in method __sizeof__ of exceptions.TypeError object>'
p47
sS'__doc__'
p48
S"'Inappropriate argument type.'"
p49
sS'__init__'
p50
S"<method-wrapper '__init__' of exceptions.TypeError object>"
p51
sS'__new__'
p52
S'<built-in method __new__ of type object>'
p53
ssS'evalue'
p54
S'not all arguments converted during string formatting'
p55
sS'request'
p56
cgluon.html
XML_unpickle
p57
(S'sh\\\x00\x00<div><table><tr><td style="font-weight:bold;vertical-align:top;">ajax</td><td style="vertical-align:top;">:</td><td><div>False</div></td></tr><tr><td style="font-weight:bold;vertical-align:top;">application</td><td style="vertical-align:top;">:</td><td><div>storecall</div></td></tr><tr><td style="font-weight:bold;vertical-align:top;">args</td><td style="vertical-align:top;">:</td><td><div><table></table></div></td></tr><tr><td style="font-weight:bold;vertical-align:top;">cid</td><td style="vertical-align:top;">:</td><td><div>None</div></td></tr><tr><td style="font-weight:bold;vertical-align:top;">client</td><td style="vertical-align:top;">:</td><td><div>127.0.0.1</div></td></tr><tr><td style="font-weight:bold;vertical-align:top;">controller</td><td style="vertical-align:top;">:</td><td><div>chamada</div></td></tr><tr><td style="font-weight:bold;vertical-align:top;">cookies</td><td style="vertical-align:top;">:</td><td><div><table><tr><td style="font-weight:bold;vertical-align:top;">session_id_admin</td><td style="vertical-align:top;">:</td><td><div>127.0.0.1-ecadb655-3eb7-4879-8f2b-9c8512330820<table><tr><td style="font-weight:bold;vertical-align:top;">comment</td><td style="vertical-align:top;">:</td><td><div></div></td></tr><tr><td style="font-weight:bold;vertical-align:top;">domain</td><td style="vertical-align:top;">:</td><td><div></div></td></tr><tr><td style="font-weight:bold;vertical-align:top;">expires</td><td style="vertical-align:top;">:</td><td><div></div></td></tr><tr><td style="font-weight:bold;vertical-align:top;">httponly</td><td style="vertical-align:top;">:</td><td><div></div></td></tr><tr><td style="font-weight:bold;vertical-align:top;">max-age</td><td style="vertical-align:top;">:</td><td><div></div></td></tr><tr><td style="font-weight:bold;vertical-align:top;">path</td><td style="vertical-align:top;">:</td><td><div></div></td></tr><tr><td style="font-weight:bold;vertical-align:top;">secure</td><td style="vertical-align:top;">:</td><td><div></div></td></tr><tr><td style="font-weight:bold;vertical-align:top;">version</td><td style="vertical-align:top;">:</td><td><div></div></td></tr></table></div></td></tr><tr><td style="font-weight:bold;vertical-align:top;">session_id_storecall</td><td style="vertical-align:top;">:</td><td><div>127.0.0.1-60fec76b-a819-42d0-8119-8396d0ba62d5<table><tr><td style="font-weight:bold;vertical-align:top;">comment</td><td style="vertical-align:top;">:</td><td><div></div></td></tr><tr><td style="font-weight:bold;vertical-align:top;">domain</td><td style="vertical-align:top;">:</td><td><div></div></td></tr><tr><td style="font-weight:bold;vertical-align:top;">expires</td><td style="vertical-align:top;">:</td><td><div></div></td></tr><tr><td style="font-weight:bold;vertical-align:top;">httponly</td><td style="vertical-align:top;">:</td><td><div></div></td></tr><tr><td style="font-weight:bold;vertical-align:top;">max-age</td><td style="vertical-align:top;">:</td><td><div></div></td></tr><tr><td style="font-weight:bold;vertical-align:top;">path</td><td style="vertical-align:top;">:</td><td><div></div></td></tr><tr><td style="font-weight:bold;vertical-align:top;">secure</td><td style="vertical-align:top;">:</td><td><div></div></td></tr><tr><td style="font-weight:bold;vertical-align:top;">version</td><td style="vertical-align:top;">:</td><td><div></div></td></tr></table></div></td></tr></table></div></td></tr><tr><td style="font-weight:bold;vertical-align:top;">env</td><td style="vertical-align:top;">:</td><td><div><table><tr><td style="font-weight:bold;vertical-align:top;">CONTENT_LENGTH</td><td style="vertical-align:top;">:</td><td><div>1334</div></td></tr><tr><td style="font-weight:bold;vertical-align:top;">CONTENT_TYPE</td><td style="vertical-align:top;">:</td><td><div>multipart/form-data; boundary=---------------------------6678296771303339441704856296</div></td></tr><tr><td style="font-weight:bold;vertical-align:top;">HTTP_ACCEPT</td><td style="vertical-align:top;">:</td><td><div>text/html,application/xhtml+xml,application/xml;q=0.9,*/*;q=0.8</div></td></tr><tr><td style="font-weight:bold;vertical-align:top;">HTTP_ACCEPT_ENCODING</td><td style="vertical-align:top;">:</td><td><div>gzip, deflate</div></td></tr><tr><td style="font-weight:bold;vertical-align:top;">HTTP_ACCEPT_LANGUAGE</td><td style="vertical-align:top;">:</td><td><div>en-US,en;q=0.5</div></td></tr><tr><td style="font-weight:bold;vertical-align:top;">HTTP_CACHE_CONTROL</td><td style="vertical-align:top;">:</td><td><div>max-age=0</div></td></tr><tr><td style="font-weight:bold;vertical-align:top;">HTTP_CONNECTION</td><td style="vertical-align:top;">:</td><td><div>keep-alive</div></td></tr><tr><td style="font-weight:bold;vertical-align:top;">HTTP_CONTENT_LENGTH</td><td style="vertical-align:top;">:</td><td><div>1334</div></td></tr><tr><td style="font-weight:bold;vertical-align:top;">HTTP_CONTENT_TYPE</td><td style="vertical-align:top;">:</td><td><div>multipart/form-data; boundary=---------------------------6678296771303339441704856296</div></td></tr><tr><td style="font-weight:bold;vertical-align:top;">HTTP_COOKIE</td><td style="vertical-align:top;">:</td><td><div>session_id_storecall=127.0.0.1-60fec76b-a819-42d0-8119-8396d0ba62d5; session_id_admin=127.0.0.1-ecadb655-3eb7-4879-8f2b-9c8512330820</div></td></tr><tr><td style="font-weight:bold;vertical-align:top;">HTTP_HOST</td><td style="vertical-align:top;">:</td><td><div>localhost:8000</div></td></tr><tr><td style="font-weight:bold;vertical-align:top;">HTTP_REFERER</td><td style="vertical-align:top;">:</td><td><div>http://localhost:8000/storecall/chamada/nova_chamada</div></td></tr><tr><td style="font-weight:bold;vertical-align:top;">HTTP_UPGRADE_INSECURE_REQUESTS</td><td style="vertical-align:top;">:</td><td><div>1</div></td></tr><tr><td style="font-weight:bold;vertical-align:top;">HTTP_USER_AGENT</td><td style="vertical-align:top;">:</td><td><div>Mozilla/5.0 (X11; Ubuntu; Linux x86_64; rv:49.0) Gecko/20100101 Firefox/49.0</div></td></tr><tr><td style="font-weight:bold;vertical-align:top;">PATH_INFO</td><td style="vertical-align:top;">:</td><td><div>/storecall/chamada/nova_chamada</div></td></tr><tr><td style="font-weight:bold;vertical-align:top;">QUERY_STRING</td><td style="vertical-align:top;">:</td><td><div></div></td></tr><tr><td style="font-weight:bold;vertical-align:top;">REMOTE_ADDR</td><td style="vertical-align:top;">:</td><td><div>127.0.0.1</div></td></tr><tr><td style="font-weight:bold;vertical-align:top;">REMOTE_PORT</td><td style="vertical-align:top;">:</td><td><div>55484</div></td></tr><tr><td style="font-weight:bold;vertical-align:top;">REQUEST_METHOD</td><td style="vertical-align:top;">:</td><td><div>POST</div></td></tr><tr><td style="font-weight:bold;vertical-align:top;">SCRIPT_NAME</td><td style="vertical-align:top;">:</td><td><div></div></td></tr><tr><td style="font-weight:bold;vertical-align:top;">SERVER_NAME</td><td style="vertical-align:top;">:</td><td><div>ferr-LG400s</div></td></tr><tr><td style="font-weight:bold;vertical-align:top;">SERVER_PORT</td><td style="vertical-align:top;">:</td><td><div>8000</div></td></tr><tr><td style="font-weight:bold;vertical-align:top;">SERVER_PROTOCOL</td><td style="vertical-align:top;">:</td><td><div>HTTP/1.1</div></td></tr><tr><td style="font-weight:bold;vertical-align:top;">SERVER_SOFTWARE</td><td style="vertical-align:top;">:</td><td><div>Rocket 1.2.6</div></td></tr><tr><td style="font-weight:bold;vertical-align:top;">app_folders</td><td style="vertical-align:top;">:</td><td><div>set([&#x27;/opt/web2py/applications/storecall/&#x27;, &#x27;/opt/web2py/applications/admin/&#x27;, &#x27;/opt/web2py/applications/blog/&#x27;, &#x27;/opt/web2py/applications/welcome/&#x27;])</div></td></tr><tr><td style="font-weight:bold;vertical-align:top;">applications_parent</td><td style="vertical-align:top;">:</td><td><div>/opt/web2py</div></td></tr><tr><td style="font-weight:bold;vertical-align:top;">cmd_args</td><td style="vertical-align:top;">:</td><td><div><table></table></div></td></tr><tr><td style="font-weight:bold;vertical-align:top;">cmd_options</td><td style="vertical-align:top;">:</td><td><div>&lt;Values at 0x7fb27e7576c8: {&#x27;verbose&#x27;: False, &#x27;ip&#x27;: &#x27;127.0.0.1&#x27;, &#x27;debuglevel&#x27;: 30, &#x27;with_scheduler&#x27;: False, &#x27;shutdown_timeout&#x27;: 5, &#x27;taskbar&#x27;: False, &#x27;with_coverage&#x27;: False, &#x27;pid_filename&#x27;: &#x27;httpserver.pid&#x27;, &#x27;maxthreads&#x27;: None, &#x27;softcron&#x27;: False, &#x27;server_name&#x27;: &#x27;ferr-LG400s&#x27;, &#x27;bpython&#x27;: False, &#x27;nogui&#x27;: False, &#x27;port&#x27;: 8000, &#x27;print_errors&#x27;: False, &#x27;extcron&#x27;: False, &#x27;runcron&#x27;: False, &#x27;run_system_tests&#x27;: False, &#x27;test&#x27;: None, &#x27;folder&#x27;: &#x27;/opt/web2py&#x27;, &#x27;config&#x27;: &#x27;&#x27;, &#x27;minthreads&#x27;: None, &#x27;shell&#x27;: None, &#x27;run&#x27;: &#x27;&#x27;, &#x27;log_filename&#x27;: &#x27;httpserver.log&#x27;, &#x27;profiler_dir&#x27;: None, &#x27;args&#x27;: [&#x27;&#x27;], &#x27;socket_timeout&#x27;: 5, &#x27;ssl_ca_certificate&#x27;: None, &#x27;scheduler&#x27;: None, &#x27;interfaces&#x27;: None, &#x27;ssl_private_key&#x27;: &#x27;&#x27;, &#x27;gae&#x27;: None, &#x27;password&#x27;: &#x27;******&#x27;, &#x27;request_queue_size&#x27;: 5, &#x27;ssl_certificate&#x27;: &#x27;&#x27;, &#x27;cronjob&#x27;: False, &#x27;numthreads&#x27;: None, &#x27;quiet&#x27;: False, &#x27;import_models&#x27;: False, &#x27;timeout&#x27;: 10, &#x27;plain&#x27;: False, &#x27;nobanner&#x27;: False}&gt;</div></td></tr><tr><td style="font-weight:bold;vertical-align:top;">content_length</td><td style="vertical-align:top;">:</td><td><div>1334</div></td></tr><tr><td style="font-weight:bold;vertical-align:top;">content_type</td><td style="vertical-align:top;">:</td><td><div>multipart/form-data; boundary=---------------------------6678296771303339441704856296</div></td></tr><tr><td style="font-weight:bold;vertical-align:top;">db_sessions</td><td style="vertical-align:top;">:</td><td><div>set([])</div></td></tr><tr><td style="font-weight:bold;vertical-align:top;">debugging</td><td style="vertical-align:top;">:</td><td><div>False</div></td></tr><tr><td style="font-weight:bold;vertical-align:top;">gluon_parent</td><td style="vertical-align:top;">:</td><td><div>/opt/web2py</div></td></tr><tr><td style="font-weight:bold;vertical-align:top;">http_accept</td><td style="vertical-align:top;">:</td><td><div>text/html,application/xhtml+xml,application/xml;q=0.9,*/*;q=0.8</div></td></tr><tr><td style="font-weight:bold;vertical-align:top;">http_accept_encoding</td><td style="vertical-align:top;">:</td><td><div>gzip, deflate</div></td></tr><tr><td style="font-weight:bold;vertical-align:top;">http_accept_language</td><td style="vertical-align:top;">:</td><td><div>en-US,en;q=0.5</div></td></tr><tr><td style="font-weight:bold;vertical-align:top;">http_cache_control</td><td style="vertical-align:top;">:</td><td><div>max-age=0</div></td></tr><tr><td style="font-weight:bold;vertical-align:top;">http_connection</td><td style="vertical-align:top;">:</td><td><div>keep-alive</div></td></tr><tr><td style="font-weight:bold;vertical-align:top;">http_content_length</td><td style="vertical-align:top;">:</td><td><div>1334</div></td></tr><tr><td style="font-weight:bold;vertical-align:top;">http_content_type</td><td style="vertical-align:top;">:</td><td><div>multipart/form-data; boundary=---------------------------6678296771303339441704856296</div></td></tr><tr><td style="font-weight:bold;vertical-align:top;">http_cookie</td><td style="vertical-align:top;">:</td><td><div>session_id_storecall=127.0.0.1-60fec76b-a819-42d0-8119-8396d0ba62d5; session_id_admin=127.0.0.1-ecadb655-3eb7-4879-8f2b-9c8512330820</div></td></tr><tr><td style="font-weight:bold;vertical-align:top;">http_host</td><td style="vertical-align:top;">:</td><td><div>localhost:8000</div></td></tr><tr><td style="font-weight:bold;vertical-align:top;">http_referer</td><td style="vertical-align:top;">:</td><td><div>http://localhost:8000/storecall/chamada/nova_chamada</div></td></tr><tr><td style="font-weight:bold;vertical-align:top;">http_upgrade_insecure_requests</td><td style="vertical-align:top;">:</td><td><div>1</div></td></tr><tr><td style="font-weight:bold;vertical-align:top;">http_user_agent</td><td style="vertical-align:top;">:</td><td><div>Mozilla/5.0 (X11; Ubuntu; Linux x86_64; rv:49.0) Gecko/20100101 Firefox/49.0</div></td></tr><tr><td style="font-weight:bold;vertical-align:top;">is_jython</td><td style="vertical-align:top;">:</td><td><div>False</div></td></tr><tr><td style="font-weight:bold;vertical-align:top;">is_pypy</td><td style="vertical-align:top;">:</td><td><div>False</div></td></tr><tr><td style="font-weight:bold;vertical-align:top;">is_source</td><td style="vertical-align:top;">:</td><td><div>True</div></td></tr><tr><td style="font-weight:bold;vertical-align:top;">local_hosts</td><td style="vertical-align:top;">:</td><td><div><table><tr><td><div>::1</div></td></tr><tr><td><div>127.0.1.1</div></td></tr><tr><td><div>::ffff:127.0.0.1</div></td></tr><tr><td><div>127.0.0.1</div></td></tr><tr><td><div>ferr-LG400s</div></td></tr></table></div></td></tr><tr><td style="font-weight:bold;vertical-align:top;">path_info</td><td style="vertical-align:top;">:</td><td><div>/storecall/chamada/nova_chamada</div></td></tr><tr><td style="font-weight:bold;vertical-align:top;">query_string</td><td style="vertical-align:top;">:</td><td><div></div></td></tr><tr><td style="font-weight:bold;vertical-align:top;">remote_addr</td><td style="vertical-align:top;">:</td><td><div>127.0.0.1</div></td></tr><tr><td style="font-weight:bold;vertical-align:top;">remote_port</td><td style="vertical-align:top;">:</td><td><div>55484</div></td></tr><tr><td style="font-weight:bold;vertical-align:top;">request_method</td><td style="vertical-align:top;">:</td><td><div>POST</div></td></tr><tr><td style="font-weight:bold;vertical-align:top;">request_uri</td><td style="vertical-align:top;">:</td><td><div>/storecall/chamada/nova_chamada</div></td></tr><tr><td style="font-weight:bold;vertical-align:top;">script_name</td><td style="vertical-align:top;">:</td><td><div></div></td></tr><tr><td style="font-weight:bold;vertical-align:top;">server_name</td><td style="vertical-align:top;">:</td><td><div>ferr-LG400s</div></td></tr><tr><td style="font-weight:bold;vertical-align:top;">server_port</td><td style="vertical-align:top;">:</td><td><div>8000</div></td></tr><tr><td style="font-weight:bold;vertical-align:top;">server_protocol</td><td style="vertical-align:top;">:</td><td><div>HTTP/1.1</div></td></tr><tr><td style="font-weight:bold;vertical-align:top;">server_software</td><td style="vertical-align:top;">:</td><td><div>Rocket 1.2.6</div></td></tr><tr><td style="font-weight:bold;vertical-align:top;">web2py_path</td><td style="vertical-align:top;">:</td><td><div>/opt/web2py</div></td></tr><tr><td style="font-weight:bold;vertical-align:top;">web2py_version</td><td style="vertical-align:top;">:</td><td><div>2.14.6-stable+timestamp.2016.05.10.00.21.47</div></td></tr><tr><td style="font-weight:bold;vertical-align:top;">wsgi.errors</td><td style="vertical-align:top;">:</td><td><div>&lt;open file &#x27;&lt;stderr&gt;&#x27;, mode &#x27;w&#x27; at 0x7fb285ffd1e0&gt;</div></td></tr><tr><td style="font-weight:bold;vertical-align:top;">wsgi.file_wrapper</td><td style="vertical-align:top;">:</td><td><div>&lt;class wsgiref.util.FileWrapper at 0x7fb27e80a050&gt;</div></td></tr><tr><td style="font-weight:bold;vertical-align:top;">wsgi.input</td><td style="vertical-align:top;">:</td><td><div>&lt;socket._fileobject object at 0x7fb2510f90d0&gt;</div></td></tr><tr><td style="font-weight:bold;vertical-align:top;">wsgi.multiprocess</td><td style="vertical-align:top;">:</td><td><div>False</div></td></tr><tr><td style="font-weight:bold;vertical-align:top;">wsgi.multithread</td><td style="vertical-align:top;">:</td><td><div>True</div></td></tr><tr><td style="font-weight:bold;vertical-align:top;">wsgi.run_once</td><td style="vertical-align:top;">:</td><td><div>False</div></td></tr><tr><td style="font-weight:bold;vertical-align:top;">wsgi.url_scheme</td><td style="vertical-align:top;">:</td><td><div>http</div></td></tr><tr><td style="font-weight:bold;vertical-align:top;">wsgi.version</td><td style="vertical-align:top;">:</td><td><div><table><tr><td><div>1</div></td></tr><tr><td><div>0</div></td></tr></table></div></td></tr><tr><td style="font-weight:bold;vertical-align:top;">wsgi_errors</td><td style="vertical-align:top;">:</td><td><div>&lt;open file &#x27;&lt;stderr&gt;&#x27;, mode &#x27;w&#x27; at 0x7fb285ffd1e0&gt;</div></td></tr><tr><td style="font-weight:bold;vertical-align:top;">wsgi_file_wrapper</td><td style="vertical-align:top;">:</td><td><div>&lt;class wsgiref.util.FileWrapper at 0x7fb27e80a050&gt;</div></td></tr><tr><td style="font-weight:bold;vertical-align:top;">wsgi_input</td><td style="vertical-align:top;">:</td><td><div>&lt;socket._fileobject object at 0x7fb2510f90d0&gt;</div></td></tr><tr><td style="font-weight:bold;vertical-align:top;">wsgi_multiprocess</td><td style="vertical-align:top;">:</td><td><div>False</div></td></tr><tr><td style="font-weight:bold;vertical-align:top;">wsgi_multithread</td><td style="vertical-align:top;">:</td><td><div>True</div></td></tr><tr><td style="font-weight:bold;vertical-align:top;">wsgi_run_once</td><td style="vertical-align:top;">:</td><td><div>False</div></td></tr><tr><td style="font-weight:bold;vertical-align:top;">wsgi_url_scheme</td><td style="vertical-align:top;">:</td><td><div>http</div></td></tr><tr><td style="font-weight:bold;vertical-align:top;">wsgi_version</td><td style="vertical-align:top;">:</td><td><div><table><tr><td><div>1</div></td></tr><tr><td><div>0</div></td></tr></table></div></td></tr></table></div></td></tr><tr><td style="font-weight:bold;vertical-align:top;">extension</td><td style="vertical-align:top;">:</td><td><div>html</div></td></tr><tr><td style="font-weight:bold;vertical-align:top;">folder</td><td style="vertical-align:top;">:</td><td><div>/opt/web2py/applications/storecall/</div></td></tr><tr><td style="font-weight:bold;vertical-align:top;">function</td><td style="vertical-align:top;">:</td><td><div>nova_chamada</div></td></tr><tr><td style="font-weight:bold;vertical-align:top;">global_settings</td><td style="vertical-align:top;">:</td><td><div><table><tr><td style="font-weight:bold;vertical-align:top;">app_folders</td><td style="vertical-align:top;">:</td><td><div>set([&#x27;/opt/web2py/applications/storecall/&#x27;, &#x27;/opt/web2py/applications/admin/&#x27;, &#x27;/opt/web2py/applications/blog/&#x27;, &#x27;/opt/web2py/applications/welcome/&#x27;])</div></td></tr><tr><td style="font-weight:bold;vertical-align:top;">applications_parent</td><td style="vertical-align:top;">:</td><td><div>/opt/web2py</div></td></tr><tr><td style="font-weight:bold;vertical-align:top;">cmd_args</td><td style="vertical-align:top;">:</td><td><div><table></table></div></td></tr><tr><td style="font-weight:bold;vertical-align:top;">cmd_options</td><td style="vertical-align:top;">:</td><td><div>&lt;Values at 0x7fb27e7576c8: {&#x27;verbose&#x27;: False, &#x27;ip&#x27;: &#x27;127.0.0.1&#x27;, &#x27;debuglevel&#x27;: 30, &#x27;with_scheduler&#x27;: False, &#x27;shutdown_timeout&#x27;: 5, &#x27;taskbar&#x27;: False, &#x27;with_coverage&#x27;: False, &#x27;pid_filename&#x27;: &#x27;httpserver.pid&#x27;, &#x27;maxthreads&#x27;: None, &#x27;softcron&#x27;: False, &#x27;server_name&#x27;: &#x27;ferr-LG400s&#x27;, &#x27;bpython&#x27;: False, &#x27;nogui&#x27;: False, &#x27;port&#x27;: 8000, &#x27;print_errors&#x27;: False, &#x27;extcron&#x27;: False, &#x27;runcron&#x27;: False, &#x27;run_system_tests&#x27;: False, &#x27;test&#x27;: None, &#x27;folder&#x27;: &#x27;/opt/web2py&#x27;, &#x27;config&#x27;: &#x27;&#x27;, &#x27;minthreads&#x27;: None, &#x27;shell&#x27;: None, &#x27;run&#x27;: &#x27;&#x27;, &#x27;log_filename&#x27;: &#x27;httpserver.log&#x27;, &#x27;profiler_dir&#x27;: None, &#x27;args&#x27;: [&#x27;&#x27;], &#x27;socket_timeout&#x27;: 5, &#x27;ssl_ca_certificate&#x27;: None, &#x27;scheduler&#x27;: None, &#x27;interfaces&#x27;: None, &#x27;ssl_private_key&#x27;: &#x27;&#x27;, &#x27;gae&#x27;: None, &#x27;password&#x27;: &#x27;******&#x27;, &#x27;request_queue_size&#x27;: 5, &#x27;ssl_certificate&#x27;: &#x27;&#x27;, &#x27;cronjob&#x27;: False, &#x27;numthreads&#x27;: None, &#x27;quiet&#x27;: False, &#x27;import_models&#x27;: False, &#x27;timeout&#x27;: 10, &#x27;plain&#x27;: False, &#x27;nobanner&#x27;: False}&gt;</div></td></tr><tr><td style="font-weight:bold;vertical-align:top;">db_sessions</td><td style="vertical-align:top;">:</td><td><div>set([])</div></td></tr><tr><td style="font-weight:bold;vertical-align:top;">debugging</td><td style="vertical-align:top;">:</td><td><div>False</div></td></tr><tr><td style="font-weight:bold;vertical-align:top;">gluon_parent</td><td style="vertical-align:top;">:</td><td><div>/opt/web2py</div></td></tr><tr><td style="font-weight:bold;vertical-align:top;">is_jython</td><td style="vertical-align:top;">:</td><td><div>False</div></td></tr><tr><td style="font-weight:bold;vertical-align:top;">is_pypy</td><td style="vertical-align:top;">:</td><td><div>False</div></td></tr><tr><td style="font-weight:bold;vertical-align:top;">is_source</td><td style="vertical-align:top;">:</td><td><div>True</div></td></tr><tr><td style="font-weight:bold;vertical-align:top;">local_hosts</td><td style="vertical-align:top;">:</td><td><div><table><tr><td><div>::1</div></td></tr><tr><td><div>127.0.1.1</div></td></tr><tr><td><div>::ffff:127.0.0.1</div></td></tr><tr><td><div>127.0.0.1</div></td></tr><tr><td><div>ferr-LG400s</div></td></tr></table></div></td></tr><tr><td style="font-weight:bold;vertical-align:top;">web2py_version</td><td style="vertical-align:top;">:</td><td><div>2.14.6-stable+timestamp.2016.05.10.00.21.47</div></td></tr></table></div></td></tr><tr><td style="font-weight:bold;vertical-align:top;">is_https</td><td style="vertical-align:top;">:</td><td><div>False</div></td></tr><tr><td style="font-weight:bold;vertical-align:top;">is_local</td><td style="vertical-align:top;">:</td><td><div>True</div></td></tr><tr><td style="font-weight:bold;vertical-align:top;">is_restful</td><td style="vertical-align:top;">:</td><td><div>False</div></td></tr><tr><td style="font-weight:bold;vertical-align:top;">is_scheduler</td><td style="vertical-align:top;">:</td><td><div>False</div></td></tr><tr><td style="font-weight:bold;vertical-align:top;">is_shell</td><td style="vertical-align:top;">:</td><td><div>False</div></td></tr><tr><td style="font-weight:bold;vertical-align:top;">now</td><td style="vertical-align:top;">:</td><td><div>datetime.datetime(2016, 10, 2, 15, 11, 53, 237920)</div></td></tr><tr><td style="font-weight:bold;vertical-align:top;">raw_args</td><td style="vertical-align:top;">:</td><td><div></div></td></tr><tr><td style="font-weight:bold;vertical-align:top;">raw_extension</td><td style="vertical-align:top;">:</td><td><div>None</div></td></tr><tr><td style="font-weight:bold;vertical-align:top;">url</td><td style="vertical-align:top;">:</td><td><div>/storecall/chamada/nova_chamada</div></td></tr><tr><td style="font-weight:bold;vertical-align:top;">utcnow</td><td style="vertical-align:top;">:</td><td><div>datetime.datetime(2016, 10, 2, 18, 11, 53, 237939)</div></td></tr><tr><td style="font-weight:bold;vertical-align:top;">wsgi</td><td style="vertical-align:top;">:</td><td><div>&lt;gluon.main.LazyWSGI object at 0x7fb251404110&gt;</div></td></tr></table></div>'
tRp58
sS'frames'
p59
(lp60
(dp61
S'file'
p62
S'/opt/web2py/gluon/restricted.py'
p63
sS'dump'
p64
(dp65
S'environment'
p66
S"{'A': <class 'gluon.html.A'>, 'ANY_OF': <class 'gluon.validators.ANY_OF'>, 'ASSIGNJS': <function ASSIGNJS>, 'AppConfig': <function AppConfig>, 'Auth': <class 'gluon.tools.Auth'>, 'B': <class 'gluon.html.B'>, 'BEAUTIFY': <class 'gluon.html.BEAUTIFY'>, 'BODY': <class 'gluon.html.BODY'>, 'BR': <class 'gluon.html.BR'>, 'BUTTON': <class 'gluon.html.BUTTON'>, ...}"
p67
sS'ccode'
p68
S'<code object <module> at 0x7fb2745d8130, file "/...orecall/views/chamada/nova_chamada.html", line 1>'
p69
ssS'lnum'
p70
I227
sS'lines'
p71
(dp72
I224
S'            ccode = code'
p73
sI225
S'        else:'
p74
sI226
S'            ccode = compile2(code, layer)'
p75
sI227
S'        exec ccode in environment'
p76
sI228
S'    except HTTP:'
p77
sI229
S'        raise'
p78
sI230
S'    except RestrictedError:'
p79
sI231
S'        # do not encapsulate (obfuscate) the original RestrictedError'
p80
sI222
S'    try:'
p81
sI223
S'        if isinstance(code, types.CodeType):'
p82
ssS'call'
p83
S'(code=\'response.write(\\\'\\\\n<!-form publicar-->\\\\n\\\\n\\\', esca..."></script>\\\\n  </body>\\\\n</html>\\\\n\\\', escape=False)\', environment={\'A\': <class \'gluon.html.A\'>, \'ANY_OF\': <class \'gluon.validators.ANY_OF\'>, \'ASSIGNJS\': <function ASSIGNJS>, \'AppConfig\': <function AppConfig>, \'Auth\': <class \'gluon.tools.Auth\'>, \'B\': <class \'gluon.html.B\'>, \'BEAUTIFY\': <class \'gluon.html.BEAUTIFY\'>, \'BODY\': <class \'gluon.html.BODY\'>, \'BR\': <class \'gluon.html.BR\'>, \'BUTTON\': <class \'gluon.html.BUTTON\'>, ...}, layer=\'/opt/web2py/applications/storecall/views/chamada/nova_chamada.html\')'
p84
sS'func'
p85
S'restricted'
p86
sa(dp87
g62
S'/opt/web2py/applications/storecall/views/chamada/nova_chamada.html'
p88
sg64
(dp89
sg70
I76
sg71
(dp90
I67
S'    response.write(\'\\n        <div class="col-md-3 left-sidebar">\\n            \', escape=False)'
p91
sI68
S"    response.write('\\n            <h3>Left Sidebar</h3>\\n            <p></p>\\n            ', escape=False)"
p92
sI69
S"    response.write('\\n        </div>\\n      ', escape=False)"
p93
sI70
S'    pass'
p94
sI71
S'response.write(\'\\n\\n      <div class="\', escape=False)'
p95
sI72
S'response.write(middle_column)'
p96
sI73
S'response.write(\'">\\n        \', escape=False)'
p97
sI74
S"response.write('\\n        ', escape=False)"
p98
sI75
S"response.write('\\n<h1>Registrar chamadas</h1>\\n', escape=False)"
p99
sI76
S'response.write(form)'
p100
sI77
S"response.write('\\n\\n', escape=False)"
p101
sI78
S"'''"
p102
sI79
S"response.write('\\n', escape=False)"
p103
sI80
S'response.write(form.custom.begin)'
p104
sI81
S"response.write('\\n<!--Protocolo -->\\n', escape=False)"
p105
sI82
S'form.elements(\'#chamadas_protocolo\')[0][\'_placerholder\'] = "Protocolo"'
p106
sI83
S"response.write('\\n', escape=False)"
p107
sI84
S'form.elements(\'#chamadas_protocolo\')[0][\'_disabled\'] = "true"'
p108
sI85
S"response.write('\\n', escape=False)"
p109
sI86
S"response.write(LABEL('Protocolo: ', _class='test', _id='protocolo'))"
p110
ssg83
S'()'
p111
sg85
S'<module>'
p112
sa(dp113
g62
S'/opt/web2py/gluon/globals.py'
p114
sg64
(dp115
S'self.body.write'
p116
S'<built-in method write of cStringIO.StringO object>'
p117
sS'self.body'
p118
S'<cStringIO.StringO object>'
p119
sS'self'
p120
S"<Storage {'body': <cStringIO.StringO object at 0...2514ed668>, 'view': 'chamada/nova_chamada.html'}>"
p121
sS'global xmlescape'
p122
S'<function xmlescape>'
p123
sS'data'
p124
S'<gluon.html.FORM object>'
p125
ssg70
I430
sg71
(dp126
I425
S''
sI426
S'    def write(self, data, escape=True):'
p127
sI427
S'        if not escape:'
p128
sI428
S'            self.body.write(str(data))'
p129
sI429
S'        else:'
p130
sI430
S'            self.body.write(xmlescape(data))'
p131
sI431
S''
sI432
S'    def render(self, *a, **b):'
p132
sI433
S'        from compileapp import run_view_in'
p133
sI434
S'        if len(a) > 2:'
p134
ssg83
S"(self=<Storage {'body': <cStringIO.StringO object at 0...2514ed668>, 'view': 'chamada/nova_chamada.html'}>, data=<gluon.html.FORM object>, escape=True)"
p135
sg85
S'write'
p136
sa(dp137
g62
S'/opt/web2py/gluon/html.py'
p138
sg64
(dp139
S'data'
p140
S'<gluon.html.FORM object>'
p141
sS'data.xml'
p142
S'<bound method FORM.xml of <gluon.html.FORM object>>'
p143
ssg70
I131
sg71
(dp144
I128
S''
sI129
S'    # first try the xml function'
p145
sI130
S"    if hasattr(data, 'xml') and callable(data.xml):"
p146
sI131
S'        return data.xml()'
p147
sI132
S''
sI133
S'    # otherwise, make it a string'
p148
sI134
S'    if not isinstance(data, (str, unicode)):'
p149
sI135
S'        data = str(data)'
p150
sI126
S'        quote: optional (default False)'
p151
sI127
S'    """'
p152
ssg83
S'(data=<gluon.html.FORM object>, quote=True)'
p153
sg85
S'xmlescape'
p154
sa(dp155
g62
S'/opt/web2py/gluon/html.py'
p156
sg64
(dp157
S'global DIV'
p158
S"<class 'gluon.html.DIV'>"
p159
sS'DIV.xml'
p160
S'<unbound method DIV.xml>'
p161
sS'newform'
p162
S'<gluon.html.FORM object>'
p163
ssg70
I2181
sg71
(dp164
I2176
S'    def xml(self):'
p165
sI2177
S'        newform = FORM(*self.components, **self.attributes)'
p166
sI2178
S'        hidden_fields = self.hidden_fields()'
p167
sI2179
S'        if hidden_fields.components:'
p168
sI2180
S'            newform.append(hidden_fields)'
p169
sI2181
S'        return DIV.xml(newform)'
p170
sI2182
S''
sI2183
S'    def validate(self, **kwargs):'
p171
sI2184
S'        """'
p172
sI2185
S'        This function validates the form,'
p173
ssg83
S'(self=<gluon.html.FORM object>)'
p174
sg85
S'xml'
p175
sa(dp176
g62
S'/opt/web2py/gluon/html.py'
p177
sg64
(dp178
S'fa'
p179
S'undefined'
p180
sS'self'
p181
S'<gluon.html.FORM object>'
p182
sS'co'
p183
g180
sS'self._xml'
p184
S'<bound method FORM._xml of <gluon.html.FORM object>>'
p185
ssg70
I963
sg71
(dp186
I960
S'        generates the xml for this component.'
p187
sI961
S'        """'
p188
sI962
S''
sI963
S'        (fa, co) = self._xml()'
p189
sI964
S''
sI965
S'        if not self.tag:'
p190
sI966
S'            return co'
p191
sI967
S''
sI958
S'    def xml(self):'
p192
sI959
S'        """'
p193
ssg83
S'(self=<gluon.html.FORM object>)'
p194
sg85
g175
sa(dp195
g62
S'/opt/web2py/gluon/html.py'
p196
sg64
(dp197
S'self'
p198
S'<gluon.html.FORM object>'
p199
sS'self.components'
p200
S'[<gluon.html.TABLE object>]'
p201
ssg70
I955
sg71
(dp202
I950
S"        fa = ''"
p203
sI951
S'        for name, value in attr:'
p204
sI952
S'            fa += \' %s="%s"\' % (name, xmlescape(value, True))'
p205
sI953
S'        # get the xml for the inner components'
p206
sI954
S'        co = join([xmlescape(component) for component in'
p207
sI955
S'                   self.components])'
p208
sI956
S'        return (fa, co)'
p209
sI957
S''
sI958
S'    def xml(self):'
p210
sI959
S'        """'
p211
ssg83
S'(self=<gluon.html.FORM object>)'
p212
sg85
S'_xml'
p213
sa(dp214
g62
S'/opt/web2py/gluon/html.py'
p215
sg64
(dp216
S'data'
p217
S'<gluon.html.TABLE object>'
p218
sS'data.xml'
p219
S'<bound method TABLE.xml of <gluon.html.TABLE object>>'
p220
ssg70
I131
sg71
(dp221
I128
S''
sI129
S'    # first try the xml function'
p222
sI130
S"    if hasattr(data, 'xml') and callable(data.xml):"
p223
sI131
S'        return data.xml()'
p224
sI132
S''
sI133
S'    # otherwise, make it a string'
p225
sI134
S'    if not isinstance(data, (str, unicode)):'
p226
sI135
S'        data = str(data)'
p227
sI126
S'        quote: optional (default False)'
p228
sI127
S'    """'
p229
ssg83
S'(data=<gluon.html.TABLE object>, quote=True)'
p230
sg85
g154
sa(dp231
g62
S'/opt/web2py/gluon/html.py'
p232
sg64
(dp233
S'fa'
p234
g180
sS'self'
p235
S'<gluon.html.TABLE object>'
p236
sS'co'
p237
g180
sS'self._xml'
p238
S'<bound method TABLE._xml of <gluon.html.TABLE object>>'
p239
ssg70
I963
sg71
(dp240
I960
S'        generates the xml for this component.'
p241
sI961
S'        """'
p242
sI962
S''
sI963
S'        (fa, co) = self._xml()'
p243
sI964
S''
sI965
S'        if not self.tag:'
p244
sI966
S'            return co'
p245
sI967
S''
sI958
S'    def xml(self):'
p246
sI959
S'        """'
p247
ssg83
S'(self=<gluon.html.TABLE object>)'
p248
sg85
g175
sa(dp249
g62
S'/opt/web2py/gluon/html.py'
p250
sg64
(dp251
S'self'
p252
S'<gluon.html.TABLE object>'
p253
sS'self.components'
p254
S'[<gluon.html.TR object>]'
p255
ssg70
I955
sg71
(dp256
I950
S"        fa = ''"
p257
sI951
S'        for name, value in attr:'
p258
sI952
S'            fa += \' %s="%s"\' % (name, xmlescape(value, True))'
p259
sI953
S'        # get the xml for the inner components'
p260
sI954
S'        co = join([xmlescape(component) for component in'
p261
sI955
S'                   self.components])'
p262
sI956
S'        return (fa, co)'
p263
sI957
S''
sI958
S'    def xml(self):'
p264
sI959
S'        """'
p265
ssg83
S'(self=<gluon.html.TABLE object>)'
p266
sg85
g213
sa(dp267
g62
S'/opt/web2py/gluon/html.py'
p268
sg64
(dp269
S'data'
p270
S'<gluon.html.TR object>'
p271
sS'data.xml'
p272
S'<bound method TR.xml of <gluon.html.TR object>>'
p273
ssg70
I131
sg71
(dp274
I128
S''
sI129
S'    # first try the xml function'
p275
sI130
S"    if hasattr(data, 'xml') and callable(data.xml):"
p276
sI131
S'        return data.xml()'
p277
sI132
S''
sI133
S'    # otherwise, make it a string'
p278
sI134
S'    if not isinstance(data, (str, unicode)):'
p279
sI135
S'        data = str(data)'
p280
sI126
S'        quote: optional (default False)'
p281
sI127
S'    """'
p282
ssg83
S'(data=<gluon.html.TR object>, quote=True)'
p283
sg85
g154
sa(dp284
g62
S'/opt/web2py/gluon/html.py'
p285
sg64
(dp286
S'fa'
p287
g180
sS'self'
p288
S'<gluon.html.TR object>'
p289
sS'co'
p290
g180
sS'self._xml'
p291
S'<bound method TR._xml of <gluon.html.TR object>>'
p292
ssg70
I963
sg71
(dp293
I960
S'        generates the xml for this component.'
p294
sI961
S'        """'
p295
sI962
S''
sI963
S'        (fa, co) = self._xml()'
p296
sI964
S''
sI965
S'        if not self.tag:'
p297
sI966
S'            return co'
p298
sI967
S''
sI958
S'    def xml(self):'
p299
sI959
S'        """'
p300
ssg83
S'(self=<gluon.html.TR object>)'
p301
sg85
g175
sa(dp302
g62
S'/opt/web2py/gluon/html.py'
p303
sg64
(dp304
S'self'
p305
S'<gluon.html.TR object>'
p306
sS'self.components'
p307
S'[<gluon.html.TD object>]'
p308
ssg70
I955
sg71
(dp309
I950
S"        fa = ''"
p310
sI951
S'        for name, value in attr:'
p311
sI952
S'            fa += \' %s="%s"\' % (name, xmlescape(value, True))'
p312
sI953
S'        # get the xml for the inner components'
p313
sI954
S'        co = join([xmlescape(component) for component in'
p314
sI955
S'                   self.components])'
p315
sI956
S'        return (fa, co)'
p316
sI957
S''
sI958
S'    def xml(self):'
p317
sI959
S'        """'
p318
ssg83
S'(self=<gluon.html.TR object>)'
p319
sg85
g213
sa(dp320
g62
S'/opt/web2py/gluon/html.py'
p321
sg64
(dp322
S'data'
p323
S'<gluon.html.TD object>'
p324
sS'data.xml'
p325
S'<bound method TD.xml of <gluon.html.TD object>>'
p326
ssg70
I131
sg71
(dp327
I128
S''
sI129
S'    # first try the xml function'
p328
sI130
S"    if hasattr(data, 'xml') and callable(data.xml):"
p329
sI131
S'        return data.xml()'
p330
sI132
S''
sI133
S'    # otherwise, make it a string'
p331
sI134
S'    if not isinstance(data, (str, unicode)):'
p332
sI135
S'        data = str(data)'
p333
sI126
S'        quote: optional (default False)'
p334
sI127
S'    """'
p335
ssg83
S'(data=<gluon.html.TD object>, quote=True)'
p336
sg85
g154
sa(dp337
g62
S'/opt/web2py/gluon/html.py'
p338
sg64
(dp339
S'fa'
p340
g180
sS'self'
p341
S'<gluon.html.TD object>'
p342
sS'co'
p343
g180
sS'self._xml'
p344
S'<bound method TD._xml of <gluon.html.TD object>>'
p345
ssg70
I963
sg71
(dp346
I960
S'        generates the xml for this component.'
p347
sI961
S'        """'
p348
sI962
S''
sI963
S'        (fa, co) = self._xml()'
p349
sI964
S''
sI965
S'        if not self.tag:'
p350
sI966
S'            return co'
p351
sI967
S''
sI958
S'    def xml(self):'
p352
sI959
S'        """'
p353
ssg83
S'(self=<gluon.html.TD object>)'
p354
sg85
g175
sa(dp355
g62
S'/opt/web2py/gluon/html.py'
p356
sg64
(dp357
S'self'
p358
S'<gluon.html.TD object>'
p359
sS'self.components'
p360
S"[<lazyT 'Nova Chamada'>]"
p361
ssg70
I955
sg71
(dp362
I950
S"        fa = ''"
p363
sI951
S'        for name, value in attr:'
p364
sI952
S'            fa += \' %s="%s"\' % (name, xmlescape(value, True))'
p365
sI953
S'        # get the xml for the inner components'
p366
sI954
S'        co = join([xmlescape(component) for component in'
p367
sI955
S'                   self.components])'
p368
sI956
S'        return (fa, co)'
p369
sI957
S''
sI958
S'    def xml(self):'
p370
sI959
S'        """'
p371
ssg83
S'(self=<gluon.html.TD object>)'
p372
sg85
g213
sa(dp373
g62
S'/opt/web2py/gluon/html.py'
p374
sg64
(dp375
S'data'
p376
S"<lazyT 'Nova Chamada'>"
p377
sS'data.xml'
p378
S"<bound method lazyT.xml of <lazyT 'Nova Chamada'>>"
p379
ssg70
I131
sg71
(dp380
I128
S''
sI129
S'    # first try the xml function'
p381
sI130
S"    if hasattr(data, 'xml') and callable(data.xml):"
p382
sI131
S'        return data.xml()'
p383
sI132
S''
sI133
S'    # otherwise, make it a string'
p384
sI134
S'    if not isinstance(data, (str, unicode)):'
p385
sI135
S'        data = str(data)'
p386
sI126
S'        quote: optional (default False)'
p387
sI127
S'    """'
p388
ssg83
S"(data=<lazyT 'Nova Chamada'>, quote=True)"
p389
sg85
g154
sa(dp390
g62
S'/opt/web2py/gluon/languages.py'
p391
sg64
(dp392
S'builtinstr'
p393
S"<type 'str'>"
p394
sS'self'
p395
S"<lazyT 'Nova Chamada'>"
p396
sS'global escape'
p397
S'<function escape>'
p398
sS'self.M'
p399
S'False'
p400
ssg70
I429
sg71
(dp401
I424
S''
sI425
S'    def __len__(self):'
p402
sI426
S'        return len(str(self))'
p403
sI427
S''
sI428
S'    def xml(self):'
p404
sI429
S'        return str(self) if self.M else escape(str(self))'
p405
sI430
S''
sI431
S'    def encode(self, *a, **b):'
p406
sI432
S'        return str(self).encode(*a, **b)'
p407
sI433
S''
ssg83
S"(self=<lazyT 'Nova Chamada'>)"
p408
sg85
g175
sa(dp409
g62
S'/opt/web2py/gluon/languages.py'
p410
sg64
(dp411
S'self.T.translate'
p412
S'<bound method translator.translate of <gluon.languages.translator object>>'
p413
sS'self.s'
p414
S'<gluon.html.SELECT object>'
p415
sS'self'
p416
S"<lazyT 'Nova Chamada'>"
p417
sS'self.T'
p418
S'<gluon.languages.translator object>'
p419
sS'self.m'
p420
S"'Nova Chamada'"
p421
ssg70
I389
sg71
(dp422
I384
S'    def __repr__(self):'
p423
sI385
S'        return "<lazyT %s>" % (repr(Utf8(self.m)), )'
p424
sI386
S''
sI387
S'    def __str__(self):'
p425
sI388
S'        return str(self.T.apply_filter(self.m, self.s, self.f, self.t) if self.M else'
p426
sI389
S'                   self.T.translate(self.m, self.s))'
p427
sI390
S''
sI391
S'    def __eq__(self, other):'
p428
sI392
S'        return str(self) == str(other)'
p429
sI393
S''
ssg83
S"(self=<lazyT 'Nova Chamada'>)"
p430
sg85
g28
sa(dp431
g62
S'/opt/web2py/gluon/languages.py'
p432
sg64
(dp433
S'symbols'
p434
S'(\'<select><option value="Acre/AC">Acre/AC</option>...lue="Tocantins/TO">Tocantins/TO</option></select>\',)'
p435
sS'message'
p436
S"'Nova Chamada'"
p437
sS'self.params_substitution'
p438
S'<bound method translator.params_substitution of <gluon.languages.translator object>>'
p439
sS'self'
p440
S'<gluon.languages.translator object>'
p441
ssg70
I949
sg71
(dp442
I944
S'                    symbols = (symbols,)'
p443
sI945
S'                symbols = tuple('
p444
sI946
S'                    value if isinstance(value, NUMBERS)'
p445
sI947
S'                    else str(value).translate(ttab_in)'
p446
sI948
S'                    for value in symbols)'
p447
sI949
S'            message = self.params_substitution(message, symbols)'
p448
sI950
S'        return message.translate(ttab_out)'
p449
sI951
S''
sI952
S''
sI953
S'def findT(path, language=DEFAULT_LANGUAGE):'
p450
ssg83
S'(self=<gluon.languages.translator object>, message=\'Nova Chamada\', symbols=(\'<select><option value="Acre/AC">Acre/AC</option>...lue="Tocantins/TO">Tocantins/TO</option></select>\',))'
p451
sg85
S'translate'
p452
sa(dp453
g62
S'/opt/web2py/gluon/languages.py'
p454
sg64
(dp455
S'symbols'
p456
S'(\'<select><option value="Acre/AC">Acre/AC</option>...lue="Tocantins/TO">Tocantins/TO</option></select>\',)'
p457
sS'message'
p458
S"'Nova Chamada'"
p459
ssg70
I926
sg71
(dp460
I928
S'        return message'
p461
sI929
S''
sI930
S'    def translate(self, message, symbols):'
p462
sI921
S'            if part == s:'
p463
sI922
S'                part = regex_plural_dict.sub(sub_dict, s)'
p464
sI923
S'                if part == s:'
p465
sI924
S'                    return m.group(0)'
p466
sI925
S'            return part'
p467
sI926
S'        message = message % symbols'
p468
sI927
S'        message = regex_plural.sub(sub_plural, message)'
p469
ssg83
S'(self=<gluon.languages.translator object>, message=\'Nova Chamada\', symbols=(\'<select><option value="Acre/AC">Acre/AC</option>...lue="Tocantins/TO">Tocantins/TO</option></select>\',))'
p470
sg85
S'params_substitution'
p471
sasS'pyver'
p472
S'Python 2.7.12: /usr/bin/python (prefix: /usr)'
p473
sS'session'
p474
g57
(S's\x03\t\x00\x00<div><table><tr><td style="font-weight:bold;vertical-align:top;">auth</td><td style="vertical-align:top;">:</td><td><div><table><tr><td style="font-weight:bold;vertical-align:top;">expiration</td><td style="vertical-align:top;">:</td><td><div>3600</div></td></tr><tr><td style="font-weight:bold;vertical-align:top;">hmac_key</td><td style="vertical-align:top;">:</td><td><div>dff0018f-cf59-41fb-8756-370df37f6060</div></td></tr><tr><td style="font-weight:bold;vertical-align:top;">last_visit</td><td style="vertical-align:top;">:</td><td><div>datetime.datetime(2016, 10, 2, 15, 11, 53, 237920)</div></td></tr><tr><td style="font-weight:bold;vertical-align:top;">remember_me</td><td style="vertical-align:top;">:</td><td><div>False</div></td></tr><tr><td style="font-weight:bold;vertical-align:top;">user</td><td style="vertical-align:top;">:</td><td><div><table><tr><td style="font-weight:bold;vertical-align:top;">cpf</td><td style="vertical-align:top;">:</td><td><div>01371780188</div></td></tr><tr><td style="font-weight:bold;vertical-align:top;">email</td><td style="vertical-align:top;">:</td><td><div>ferr.atendimento@gmail.com</div></td></tr><tr><td style="font-weight:bold;vertical-align:top;">first_name</td><td style="vertical-align:top;">:</td><td><div>Eduardo</div></td></tr><tr><td style="font-weight:bold;vertical-align:top;">id</td><td style="vertical-align:top;">:</td><td><div>4L</div></td></tr><tr><td style="font-weight:bold;vertical-align:top;">last_name</td><td style="vertical-align:top;">:</td><td><div>de Atendimento</div></td></tr><tr><td style="font-weight:bold;vertical-align:top;">registration_id</td><td style="vertical-align:top;">:</td><td><div></div></td></tr><tr><td style="font-weight:bold;vertical-align:top;">registration_key</td><td style="vertical-align:top;">:</td><td><div></div></td></tr><tr><td style="font-weight:bold;vertical-align:top;">reset_password_key</td><td style="vertical-align:top;">:</td><td><div></div></td></tr></table></div></td></tr><tr><td style="font-weight:bold;vertical-align:top;">user_groups</td><td style="vertical-align:top;">:</td><td><div><table></table></div></td></tr></table></div></td></tr><tr><td style="font-weight:bold;vertical-align:top;">flash</td><td style="vertical-align:top;">:</td><td><div>None</div></td></tr></table></div>'
tRp475
sS'etype'
p476
S"<type 'exceptions.TypeError'>"
p477
sS'date'
p478
S'Sun Oct  2 15:11:53 2016'
p479
sS'response'
p480
g57
(S'sq@\x00\x00<div><table><tr><td style="font-weight:bold;vertical-align:top;">body</td><td style="vertical-align:top;">:</td><td><div>&lt;cStringIO.StringO object at 0x7fb2514237d8&gt;</div></td></tr><tr><td style="font-weight:bold;vertical-align:top;">cookies</td><td style="vertical-align:top;">:</td><td><div><table><tr><td style="font-weight:bold;vertical-align:top;">session_id_storecall</td><td style="vertical-align:top;">:</td><td><div>127.0.0.1-60fec76b-a819-42d0-8119-8396d0ba62d5<table><tr><td style="font-weight:bold;vertical-align:top;">comment</td><td style="vertical-align:top;">:</td><td><div></div></td></tr><tr><td style="font-weight:bold;vertical-align:top;">domain</td><td style="vertical-align:top;">:</td><td><div></div></td></tr><tr><td style="font-weight:bold;vertical-align:top;">expires</td><td style="vertical-align:top;">:</td><td><div></div></td></tr><tr><td style="font-weight:bold;vertical-align:top;">httponly</td><td style="vertical-align:top;">:</td><td><div></div></td></tr><tr><td style="font-weight:bold;vertical-align:top;">max-age</td><td style="vertical-align:top;">:</td><td><div></div></td></tr><tr><td style="font-weight:bold;vertical-align:top;">path</td><td style="vertical-align:top;">:</td><td><div>/</div></td></tr><tr><td style="font-weight:bold;vertical-align:top;">secure</td><td style="vertical-align:top;">:</td><td><div></div></td></tr><tr><td style="font-weight:bold;vertical-align:top;">version</td><td style="vertical-align:top;">:</td><td><div></div></td></tr></table></div></td></tr></table></div></td></tr><tr><td style="font-weight:bold;vertical-align:top;">delimiters</td><td style="vertical-align:top;">:</td><td><div><table><tr><td><div>{{</div></td></tr><tr><td><div>}}</div></td></tr></table></div></td></tr><tr><td style="font-weight:bold;vertical-align:top;">files</td><td style="vertical-align:top;">:</td><td><div><table><tr><td><div>/storecall/static/js/jquery.js</div></td></tr><tr><td><div>/storecall/static/css/calendar.css</div></td></tr><tr><td><div>/storecall/static/js/calendar.js</div></td></tr><tr><td><div>/storecall/static/js/web2py.js</div></td></tr></table></div></td></tr><tr><td style="font-weight:bold;vertical-align:top;">flash</td><td style="vertical-align:top;">:</td><td><div></div></td></tr><tr><td style="font-weight:bold;vertical-align:top;">form_label_separator</td><td style="vertical-align:top;">:</td><td><div></div></td></tr><tr><td style="font-weight:bold;vertical-align:top;">formstyle</td><td style="vertical-align:top;">:</td><td><div>bootstrap3_inline</div></td></tr><tr><td style="font-weight:bold;vertical-align:top;">generic_patterns</td><td style="vertical-align:top;">:</td><td><div><table><tr><td><div>*</div></td></tr></table></div></td></tr><tr><td style="font-weight:bold;vertical-align:top;">google_analytics_id</td><td style="vertical-align:top;">:</td><td><div>None</div></td></tr><tr><td style="font-weight:bold;vertical-align:top;">headers</td><td style="vertical-align:top;">:</td><td><div><table><tr><td style="font-weight:bold;vertical-align:top;">X-Powered-By</td><td style="vertical-align:top;">:</td><td><div>web2py</div></td></tr></table></div></td></tr><tr><td style="font-weight:bold;vertical-align:top;">logo</td><td style="vertical-align:top;">:</td><td><div><a class="navbar-brand" href="http://www.web2py.com/" id="web2py-logo"><b>web<span>2</span>py</b>&trade;&nbsp;</a></div></td></tr><tr><td style="font-weight:bold;vertical-align:top;">menu</td><td style="vertical-align:top;">:</td><td><div><table><tr><td><div><table><tr><td><div>Home</div></td></tr><tr><td><div>False</div></td></tr><tr><td><div>/storecall/default/index</div></td></tr><tr><td><div><table></table></div></td></tr></table></div></td></tr><tr><td><div><table><tr><td><div>My Sites</div></td></tr><tr><td><div>False</div></td></tr><tr><td><div>/admin/default/site</div></td></tr></table></div></td></tr><tr><td><div><table><tr><td><div>This App</div></td></tr><tr><td><div>False</div></td></tr><tr><td><div>#</div></td></tr><tr><td><div><table><tr><td><div><table><tr><td><div>Design</div></td></tr><tr><td><div>False</div></td></tr><tr><td><div>/admin/default/design/storecall</div></td></tr></table></div></td></tr><tr><td><div><li class="divider"></li></div></td></tr><tr><td><div><table><tr><td><div>Controller</div></td></tr><tr><td><div>False</div></td></tr><tr><td><div>/admin/default/edit/storecall/controllers/chamada.py</div></td></tr></table></div></td></tr><tr><td><div><table><tr><td><div>View</div></td></tr><tr><td><div>False</div></td></tr><tr><td><div>/admin/default/edit/storecall/views/chamada/nova_chamada.html</div></td></tr></table></div></td></tr><tr><td><div><table><tr><td><div>DB Model</div></td></tr><tr><td><div>False</div></td></tr><tr><td><div>/admin/default/edit/storecall/models/db.py</div></td></tr></table></div></td></tr><tr><td><div><table><tr><td><div>Menu Model</div></td></tr><tr><td><div>False</div></td></tr><tr><td><div>/admin/default/edit/storecall/models/menu.py</div></td></tr></table></div></td></tr><tr><td><div><table><tr><td><div>Config.ini</div></td></tr><tr><td><div>False</div></td></tr><tr><td><div>/admin/default/edit/storecall/private/appconfig.ini</div></td></tr></table></div></td></tr><tr><td><div><table><tr><td><div>Layout</div></td></tr><tr><td><div>False</div></td></tr><tr><td><div>/admin/default/edit/storecall/views/layout.html</div></td></tr></table></div></td></tr><tr><td><div><table><tr><td><div>Stylesheet</div></td></tr><tr><td><div>False</div></td></tr><tr><td><div>/admin/default/edit/storecall/static/css/web2py-bootstrap3.css</div></td></tr></table></div></td></tr><tr><td><div><table><tr><td><div>Database</div></td></tr><tr><td><div>False</div></td></tr><tr><td><div>/storecall/appadmin/index</div></td></tr></table></div></td></tr><tr><td><div><table><tr><td><div>Errors</div></td></tr><tr><td><div>False</div></td></tr><tr><td><div>/admin/default/errors/storecall</div></td></tr></table></div></td></tr><tr><td><div><table><tr><td><div>About</div></td></tr><tr><td><div>False</div></td></tr><tr><td><div>/admin/default/about/storecall</div></td></tr></table></div></td></tr></table></div></td></tr></table></div></td></tr><tr><td><div><table><tr><td><div>web2py.com</div></td></tr><tr><td><div>False</div></td></tr><tr><td><div>#</div></td></tr><tr><td><div><table><tr><td><div><table><tr><td><div>Download</div></td></tr><tr><td><div>False</div></td></tr><tr><td><div>http://www.web2py.com/examples/default/download</div></td></tr></table></div></td></tr><tr><td><div><table><tr><td><div>Support</div></td></tr><tr><td><div>False</div></td></tr><tr><td><div>http://www.web2py.com/examples/default/support</div></td></tr></table></div></td></tr><tr><td><div><table><tr><td><div>Demo</div></td></tr><tr><td><div>False</div></td></tr><tr><td><div>http://web2py.com/demo_admin</div></td></tr></table></div></td></tr><tr><td><div><table><tr><td><div>Quick Examples</div></td></tr><tr><td><div>False</div></td></tr><tr><td><div>http://web2py.com/examples/default/examples</div></td></tr></table></div></td></tr><tr><td><div><table><tr><td><div>FAQ</div></td></tr><tr><td><div>False</div></td></tr><tr><td><div>http://web2py.com/AlterEgo</div></td></tr></table></div></td></tr><tr><td><div><table><tr><td><div>Videos</div></td></tr><tr><td><div>False</div></td></tr><tr><td><div>http://www.web2py.com/examples/default/videos/</div></td></tr></table></div></td></tr><tr><td><div><table><tr><td><div>Free Applications</div></td></tr><tr><td><div>False</div></td></tr><tr><td><div>http://web2py.com/appliances</div></td></tr></table></div></td></tr><tr><td><div><table><tr><td><div>Plugins</div></td></tr><tr><td><div>False</div></td></tr><tr><td><div>http://web2py.com/plugins</div></td></tr></table></div></td></tr><tr><td><div><table><tr><td><div>Recipes</div></td></tr><tr><td><div>False</div></td></tr><tr><td><div>http://web2pyslices.com/</div></td></tr></table></div></td></tr></table></div></td></tr></table></div></td></tr><tr><td><div><table><tr><td><div>Documentation</div></td></tr><tr><td><div>False</div></td></tr><tr><td><div>#</div></td></tr><tr><td><div><table><tr><td><div><table><tr><td><div>Online book</div></td></tr><tr><td><div>False</div></td></tr><tr><td><div>http://www.web2py.com/book</div></td></tr></table></div></td></tr><tr><td><div><li class="divider"></li></div></td></tr><tr><td><div><table><tr><td><div>Preface</div></td></tr><tr><td><div>False</div></td></tr><tr><td><div>http://www.web2py.com/book/default/chapter/00</div></td></tr></table></div></td></tr><tr><td><div><table><tr><td><div>Introduction</div></td></tr><tr><td><div>False</div></td></tr><tr><td><div>http://www.web2py.com/book/default/chapter/01</div></td></tr></table></div></td></tr><tr><td><div><table><tr><td><div>Python</div></td></tr><tr><td><div>False</div></td></tr><tr><td><div>http://www.web2py.com/book/default/chapter/02</div></td></tr></table></div></td></tr><tr><td><div><table><tr><td><div>Overview</div></td></tr><tr><td><div>False</div></td></tr><tr><td><div>http://www.web2py.com/book/default/chapter/03</div></td></tr></table></div></td></tr><tr><td><div><table><tr><td><div>The Core</div></td></tr><tr><td><div>False</div></td></tr><tr><td><div>http://www.web2py.com/book/default/chapter/04</div></td></tr></table></div></td></tr><tr><td><div><table><tr><td><div>The Views</div></td></tr><tr><td><div>False</div></td></tr><tr><td><div>http://www.web2py.com/book/default/chapter/05</div></td></tr></table></div></td></tr><tr><td><div><table><tr><td><div>Database</div></td></tr><tr><td><div>False</div></td></tr><tr><td><div>http://www.web2py.com/book/default/chapter/06</div></td></tr></table></div></td></tr><tr><td><div><table><tr><td><div>Forms and Validators</div></td></tr><tr><td><div>False</div></td></tr><tr><td><div>http://www.web2py.com/book/default/chapter/07</div></td></tr></table></div></td></tr><tr><td><div><table><tr><td><div>Email and SMS</div></td></tr><tr><td><div>False</div></td></tr><tr><td><div>http://www.web2py.com/book/default/chapter/08</div></td></tr></table></div></td></tr><tr><td><div><table><tr><td><div>Access Control</div></td></tr><tr><td><div>False</div></td></tr><tr><td><div>http://www.web2py.com/book/default/chapter/09</div></td></tr></table></div></td></tr><tr><td><div><table><tr><td><div>Services</div></td></tr><tr><td><div>False</div></td></tr><tr><td><div>http://www.web2py.com/book/default/chapter/10</div></td></tr></table></div></td></tr><tr><td><div><table><tr><td><div>Ajax Recipes</div></td></tr><tr><td><div>False</div></td></tr><tr><td><div>http://www.web2py.com/book/default/chapter/11</div></td></tr></table></div></td></tr><tr><td><div><table><tr><td><div>Components and Plugins</div></td></tr><tr><td><div>False</div></td></tr><tr><td><div>http://www.web2py.com/book/default/chapter/12</div></td></tr></table></div></td></tr><tr><td><div><table><tr><td><div>Deployment Recipes</div></td></tr><tr><td><div>False</div></td></tr><tr><td><div>http://www.web2py.com/book/default/chapter/13</div></td></tr></table></div></td></tr><tr><td><div><table><tr><td><div>Other Recipes</div></td></tr><tr><td><div>False</div></td></tr><tr><td><div>http://www.web2py.com/book/default/chapter/14</div></td></tr></table></div></td></tr><tr><td><div><table><tr><td><div>Helping web2py</div></td></tr><tr><td><div>False</div></td></tr><tr><td><div>http://www.web2py.com/book/default/chapter/15</div></td></tr></table></div></td></tr><tr><td><div><table><tr><td><div>Buy web2py\'s book</div></td></tr><tr><td><div>False</div></td></tr><tr><td><div>http://stores.lulu.com/web2py</div></td></tr></table></div></td></tr></table></div></td></tr></table></div></td></tr><tr><td><div><table><tr><td><div>Community</div></td></tr><tr><td><div>False</div></td></tr><tr><td><div>None</div></td></tr><tr><td><div><table><tr><td><div><table><tr><td><div>Groups</div></td></tr><tr><td><div>False</div></td></tr><tr><td><div>http://www.web2py.com/examples/default/usergroups</div></td></tr></table></div></td></tr><tr><td><div><table><tr><td><div>Twitter</div></td></tr><tr><td><div>False</div></td></tr><tr><td><div>http://twitter.com/web2py</div></td></tr></table></div></td></tr><tr><td><div><table><tr><td><div>Live Chat</div></td></tr><tr><td><div>False</div></td></tr><tr><td><div>http://webchat.freenode.net/?channels=web2py</div></td></tr></table></div></td></tr></table></div></td></tr></table></div></td></tr></table></div></td></tr><tr><td style="font-weight:bold;vertical-align:top;">meta</td><td style="vertical-align:top;">:</td><td><div><table><tr><td style="font-weight:bold;vertical-align:top;">author</td><td style="vertical-align:top;">:</td><td><div>Your Name &lt;you@example.com&gt;</div></td></tr><tr><td style="font-weight:bold;vertical-align:top;">description</td><td style="vertical-align:top;">:</td><td><div>a cool new app</div></td></tr><tr><td style="font-weight:bold;vertical-align:top;">generator</td><td style="vertical-align:top;">:</td><td><div>Web2py Web Framework</div></td></tr><tr><td style="font-weight:bold;vertical-align:top;">keywords</td><td style="vertical-align:top;">:</td><td><div><table><tr><td><div>web2py</div></td></tr><tr><td><div>python</div></td></tr><tr><td><div>framework</div></td></tr></table></div></td></tr></table></div></td></tr><tr><td style="font-weight:bold;vertical-align:top;">models_to_run</td><td style="vertical-align:top;">:</td><td><div><table><tr><td><div>^\\w+\\.py$</div></td></tr><tr><td><div>^chamada/\\w+\\.py$</div></td></tr><tr><td><div>^chamada/nova_chamada/\\w+\\.py$</div></td></tr></table></div></td></tr><tr><td style="font-weight:bold;vertical-align:top;">postprocessing</td><td style="vertical-align:top;">:</td><td><div><table></table></div></td></tr><tr><td style="font-weight:bold;vertical-align:top;">session_client</td><td style="vertical-align:top;">:</td><td><div>127.0.0.1</div></td></tr><tr><td style="font-weight:bold;vertical-align:top;">session_cookie_compression_level</td><td style="vertical-align:top;">:</td><td><div>None</div></td></tr><tr><td style="font-weight:bold;vertical-align:top;">session_cookie_expires</td><td style="vertical-align:top;">:</td><td><div>None</div></td></tr><tr><td style="font-weight:bold;vertical-align:top;">session_data_name</td><td style="vertical-align:top;">:</td><td><div>session_data_storecall</div></td></tr><tr><td style="font-weight:bold;vertical-align:top;">session_file</td><td style="vertical-align:top;">:</td><td><div>&lt;open file &#x27;/opt/web2py/applications/storecall/sessions/1f5/0ff/127.0.0.1-60fec76b-a819-42d0-8119-8396d0ba62d5&#x27;, mode &#x27;rb+&#x27; at 0x7fb2740f9540&gt;</div></td></tr><tr><td style="font-weight:bold;vertical-align:top;">session_filename</td><td style="vertical-align:top;">:</td><td><div>/opt/web2py/applications/storecall/sessions/127.0.0.1-60fec76b-a819-42d0-8119-8396d0ba62d5</div></td></tr><tr><td style="font-weight:bold;vertical-align:top;">session_hash</td><td style="vertical-align:top;">:</td><td><div>7d91447151b1e60b60c9e0856647b31b</div></td></tr><tr><td style="font-weight:bold;vertical-align:top;">session_id</td><td style="vertical-align:top;">:</td><td><div>127.0.0.1-60fec76b-a819-42d0-8119-8396d0ba62d5</div></td></tr><tr><td style="font-weight:bold;vertical-align:top;">session_id_name</td><td style="vertical-align:top;">:</td><td><div>session_id_storecall</div></td></tr><tr><td style="font-weight:bold;vertical-align:top;">session_locked</td><td style="vertical-align:top;">:</td><td><div>True</div></td></tr><tr><td style="font-weight:bold;vertical-align:top;">session_masterapp</td><td style="vertical-align:top;">:</td><td><div>storecall</div></td></tr><tr><td style="font-weight:bold;vertical-align:top;">session_new</td><td style="vertical-align:top;">:</td><td><div>False</div></td></tr><tr><td style="font-weight:bold;vertical-align:top;">session_storage_type</td><td style="vertical-align:top;">:</td><td><div>file</div></td></tr><tr><td style="font-weight:bold;vertical-align:top;">status</td><td style="vertical-align:top;">:</td><td><div>200</div></td></tr><tr><td style="font-weight:bold;vertical-align:top;">subtitle</td><td style="vertical-align:top;">:</td><td><div></div></td></tr><tr><td style="font-weight:bold;vertical-align:top;">title</td><td style="vertical-align:top;">:</td><td><div>Storecall</div></td></tr><tr><td style="font-weight:bold;vertical-align:top;">view</td><td style="vertical-align:top;">:</td><td><div>chamada/nova_chamada.html</div></td></tr></table></div>'
tRp481
sS'locals'
p482
(dp483
S'symbols'
p484
S'(\'<select><option value="Acre/AC">Acre/AC</option>...lue="Tocantins/TO">Tocantins/TO</option></select>\',)'
p485
sS'message'
p486
S"'Nova Chamada'"
p487
sS'sub_plural'
p488
S'<function sub_plural>'
p489
sS'self'
p490
S'<gluon.languages.translator object>'
p491
sssS'traceback'
p492
S'Traceback (most recent call last):\n  File "/opt/web2py/gluon/restricted.py", line 227, in restricted\n    exec ccode in environment\n  File "/opt/web2py/applications/storecall/views/chamada/nova_chamada.html", line 76, in <module>\n  File "/opt/web2py/gluon/globals.py", line 430, in write\n    self.body.write(xmlescape(data))\n  File "/opt/web2py/gluon/html.py", line 131, in xmlescape\n    return data.xml()\n  File "/opt/web2py/gluon/html.py", line 2181, in xml\n    return DIV.xml(newform)\n  File "/opt/web2py/gluon/html.py", line 963, in xml\n    (fa, co) = self._xml()\n  File "/opt/web2py/gluon/html.py", line 955, in _xml\n    self.components])\n  File "/opt/web2py/gluon/html.py", line 131, in xmlescape\n    return data.xml()\n  File "/opt/web2py/gluon/html.py", line 963, in xml\n    (fa, co) = self._xml()\n  File "/opt/web2py/gluon/html.py", line 955, in _xml\n    self.components])\n  File "/opt/web2py/gluon/html.py", line 131, in xmlescape\n    return data.xml()\n  File "/opt/web2py/gluon/html.py", line 963, in xml\n    (fa, co) = self._xml()\n  File "/opt/web2py/gluon/html.py", line 955, in _xml\n    self.components])\n  File "/opt/web2py/gluon/html.py", line 131, in xmlescape\n    return data.xml()\n  File "/opt/web2py/gluon/html.py", line 963, in xml\n    (fa, co) = self._xml()\n  File "/opt/web2py/gluon/html.py", line 955, in _xml\n    self.components])\n  File "/opt/web2py/gluon/html.py", line 131, in xmlescape\n    return data.xml()\n  File "/opt/web2py/gluon/languages.py", line 429, in xml\n    return str(self) if self.M else escape(str(self))\n  File "/opt/web2py/gluon/languages.py", line 389, in __str__\n    self.T.translate(self.m, self.s))\n  File "/opt/web2py/gluon/languages.py", line 949, in translate\n    message = self.params_substitution(message, symbols)\n  File "/opt/web2py/gluon/languages.py", line 926, in params_substitution\n    message = message % symbols\nTypeError: not all arguments converted during string formatting\n'
p493
s.