(dp1
S'output'
p2
S"<type 'exceptions.TypeError'> Required argument 'year' (pos 1) not found"
p3
sS'layer'
p4
S'/opt/web2py/applications/storecall/models/dbChamadas.py'
p5
sS'code'
p6
S"Chamadas = db.define_table('chamadas',\n    auth.signature,\n    Field('protocolo', 'string', label='Protocolos', default='0000/000000000'),\n    Field('data_acionamento', 'datetime', label='Acionado em:', default=datetime.datetime(format='%d/%m/%y')),\n    Field('atendente_acionamento', 'reference auth_user', label='Atendente acionado: ', default=auth.user_id),\n    Field('data_protocolo', 'datetime', label='Protocolado em:', default=datetime.datetime.today()),\n    Field('atendente_protocolo', 'reference auth_user', label='Atendente do protocolo: ', default=auth.user_id),\n    Field('identificador', 'string', label='Identificador(CPF/CNPJ)'),\n    Field('nome', 'string', label='Nome'),\n    Field('email', 'string', label='Email'),\n    Field('telefone', 'string', label='Telefone'),\n    Field('cep', 'string', label='CEP'),\n    Field('estado'),\n    #Field('cidade', 'string', label='Local (munic\xc3\xadpio, cidade, estado)'),\n    Field('sistema'),\n    Field('demanda', 'text', label='Demanda'))\n\ndb.chamadas.protocolo.writable = False\n#db.chamadas.protocolo.readable = None\n\ndb.chamadas.data_acionamento.writable = False\ndb.chamadas.data_acionamento.readable = True\n\ndb.chamadas.data_protocolo.writable = False\ndb.chamadas.data_protocolo.readable = False\n\ndb.chamadas.atendente_protocolo.writable = False\ndb.chamadas.atendente_protocolo.readable = False\n\ndb.chamadas.atendente_acionamento.writable = False\ndb.chamadas.atendente_acionamento.readable = True"
p7
sS'snapshot'
p8
(dp9
S'exception'
p10
(dp11
S'__hash__'
p12
S"<method-wrapper '__hash__' of exceptions.TypeError object>"
p13
sS'__setattr__'
p14
S"<method-wrapper '__setattr__' of exceptions.TypeError object>"
p15
sS'__reduce_ex__'
p16
S'<built-in method __reduce_ex__ of exceptions.TypeError object>'
p17
sS'__getslice__'
p18
S"<method-wrapper '__getslice__' of exceptions.TypeError object>"
p19
sS'__getitem__'
p20
S"<method-wrapper '__getitem__' of exceptions.TypeError object>"
p21
sS'__setstate__'
p22
S'<built-in method __setstate__ of exceptions.TypeError object>'
p23
sS'args'
p24
S'("Required argument \'year\' (pos 1) not found",)'
p25
sS'__reduce__'
p26
S'<built-in method __reduce__ of exceptions.TypeError object>'
p27
sS'__str__'
p28
S"<method-wrapper '__str__' of exceptions.TypeError object>"
p29
sS'__format__'
p30
S'<built-in method __format__ of exceptions.TypeError object>'
p31
sS'__getattribute__'
p32
S"<method-wrapper '__getattribute__' of exceptions.TypeError object>"
p33
sS'__class__'
p34
S"<type 'exceptions.TypeError'>"
p35
sS'__unicode__'
p36
S'<built-in method __unicode__ of exceptions.TypeError object>'
p37
sS'__delattr__'
p38
S"<method-wrapper '__delattr__' of exceptions.TypeError object>"
p39
sS'__subclasshook__'
p40
S'<built-in method __subclasshook__ of type object>'
p41
sS'__repr__'
p42
S"<method-wrapper '__repr__' of exceptions.TypeError object>"
p43
sS'__dict__'
p44
S'{}'
p45
sS'__sizeof__'
p46
S'<built-in method __sizeof__ of exceptions.TypeError object>'
p47
sS'__doc__'
p48
S"'Inappropriate argument type.'"
p49
sS'__init__'
p50
S"<method-wrapper '__init__' of exceptions.TypeError object>"
p51
sS'__new__'
p52
S'<built-in method __new__ of type object>'
p53
ssS'evalue'
p54
S"Required argument 'year' (pos 1) not found"
p55
sS'request'
p56
cgluon.html
XML_unpickle
p57
(S'sA`\x00\x00<div><table><tr><td style="font-weight:bold;vertical-align:top;">ajax</td><td style="vertical-align:top;">:</td><td><div>False</div></td></tr><tr><td style="font-weight:bold;vertical-align:top;">application</td><td style="vertical-align:top;">:</td><td><div>storecall</div></td></tr><tr><td style="font-weight:bold;vertical-align:top;">args</td><td style="vertical-align:top;">:</td><td><div><table></table></div></td></tr><tr><td style="font-weight:bold;vertical-align:top;">cid</td><td style="vertical-align:top;">:</td><td><div>None</div></td></tr><tr><td style="font-weight:bold;vertical-align:top;">client</td><td style="vertical-align:top;">:</td><td><div>127.0.0.1</div></td></tr><tr><td style="font-weight:bold;vertical-align:top;">controller</td><td style="vertical-align:top;">:</td><td><div>chamada</div></td></tr><tr><td style="font-weight:bold;vertical-align:top;">cookies</td><td style="vertical-align:top;">:</td><td><div><table><tr><td style="font-weight:bold;vertical-align:top;">session_id_admin</td><td style="vertical-align:top;">:</td><td><div>127.0.0.1-ecadb655-3eb7-4879-8f2b-9c8512330820<table><tr><td style="font-weight:bold;vertical-align:top;">comment</td><td style="vertical-align:top;">:</td><td><div></div></td></tr><tr><td style="font-weight:bold;vertical-align:top;">domain</td><td style="vertical-align:top;">:</td><td><div></div></td></tr><tr><td style="font-weight:bold;vertical-align:top;">expires</td><td style="vertical-align:top;">:</td><td><div></div></td></tr><tr><td style="font-weight:bold;vertical-align:top;">httponly</td><td style="vertical-align:top;">:</td><td><div></div></td></tr><tr><td style="font-weight:bold;vertical-align:top;">max-age</td><td style="vertical-align:top;">:</td><td><div></div></td></tr><tr><td style="font-weight:bold;vertical-align:top;">path</td><td style="vertical-align:top;">:</td><td><div></div></td></tr><tr><td style="font-weight:bold;vertical-align:top;">secure</td><td style="vertical-align:top;">:</td><td><div></div></td></tr><tr><td style="font-weight:bold;vertical-align:top;">version</td><td style="vertical-align:top;">:</td><td><div></div></td></tr></table></div></td></tr><tr><td style="font-weight:bold;vertical-align:top;">session_id_locadora</td><td style="vertical-align:top;">:</td><td><div>127.0.0.1-e7523c80-8154-418f-843d-1d064ae42102<table><tr><td style="font-weight:bold;vertical-align:top;">comment</td><td style="vertical-align:top;">:</td><td><div></div></td></tr><tr><td style="font-weight:bold;vertical-align:top;">domain</td><td style="vertical-align:top;">:</td><td><div></div></td></tr><tr><td style="font-weight:bold;vertical-align:top;">expires</td><td style="vertical-align:top;">:</td><td><div></div></td></tr><tr><td style="font-weight:bold;vertical-align:top;">httponly</td><td style="vertical-align:top;">:</td><td><div></div></td></tr><tr><td style="font-weight:bold;vertical-align:top;">max-age</td><td style="vertical-align:top;">:</td><td><div></div></td></tr><tr><td style="font-weight:bold;vertical-align:top;">path</td><td style="vertical-align:top;">:</td><td><div></div></td></tr><tr><td style="font-weight:bold;vertical-align:top;">secure</td><td style="vertical-align:top;">:</td><td><div></div></td></tr><tr><td style="font-weight:bold;vertical-align:top;">version</td><td style="vertical-align:top;">:</td><td><div></div></td></tr></table></div></td></tr><tr><td style="font-weight:bold;vertical-align:top;">session_id_storecall</td><td style="vertical-align:top;">:</td><td><div>127.0.0.1-877b2f46-48d4-4f5c-9bf1-7a554108a852<table><tr><td style="font-weight:bold;vertical-align:top;">comment</td><td style="vertical-align:top;">:</td><td><div></div></td></tr><tr><td style="font-weight:bold;vertical-align:top;">domain</td><td style="vertical-align:top;">:</td><td><div></div></td></tr><tr><td style="font-weight:bold;vertical-align:top;">expires</td><td style="vertical-align:top;">:</td><td><div></div></td></tr><tr><td style="font-weight:bold;vertical-align:top;">httponly</td><td style="vertical-align:top;">:</td><td><div></div></td></tr><tr><td style="font-weight:bold;vertical-align:top;">max-age</td><td style="vertical-align:top;">:</td><td><div></div></td></tr><tr><td style="font-weight:bold;vertical-align:top;">path</td><td style="vertical-align:top;">:</td><td><div></div></td></tr><tr><td style="font-weight:bold;vertical-align:top;">secure</td><td style="vertical-align:top;">:</td><td><div></div></td></tr><tr><td style="font-weight:bold;vertical-align:top;">version</td><td style="vertical-align:top;">:</td><td><div></div></td></tr></table></div></td></tr><tr><td style="font-weight:bold;vertical-align:top;">session_id_welcome</td><td style="vertical-align:top;">:</td><td><div>127.0.0.1-9e969749-b7bf-4e7a-926a-d3915331ea75<table><tr><td style="font-weight:bold;vertical-align:top;">comment</td><td style="vertical-align:top;">:</td><td><div></div></td></tr><tr><td style="font-weight:bold;vertical-align:top;">domain</td><td style="vertical-align:top;">:</td><td><div></div></td></tr><tr><td style="font-weight:bold;vertical-align:top;">expires</td><td style="vertical-align:top;">:</td><td><div></div></td></tr><tr><td style="font-weight:bold;vertical-align:top;">httponly</td><td style="vertical-align:top;">:</td><td><div></div></td></tr><tr><td style="font-weight:bold;vertical-align:top;">max-age</td><td style="vertical-align:top;">:</td><td><div></div></td></tr><tr><td style="font-weight:bold;vertical-align:top;">path</td><td style="vertical-align:top;">:</td><td><div></div></td></tr><tr><td style="font-weight:bold;vertical-align:top;">secure</td><td style="vertical-align:top;">:</td><td><div></div></td></tr><tr><td style="font-weight:bold;vertical-align:top;">version</td><td style="vertical-align:top;">:</td><td><div></div></td></tr></table></div></td></tr></table></div></td></tr><tr><td style="font-weight:bold;vertical-align:top;">env</td><td style="vertical-align:top;">:</td><td><div><table><tr><td style="font-weight:bold;vertical-align:top;">HTTP_ACCEPT</td><td style="vertical-align:top;">:</td><td><div>text/html,application/xhtml+xml,application/xml;q=0.9,*/*;q=0.8</div></td></tr><tr><td style="font-weight:bold;vertical-align:top;">HTTP_ACCEPT_ENCODING</td><td style="vertical-align:top;">:</td><td><div>gzip, deflate</div></td></tr><tr><td style="font-weight:bold;vertical-align:top;">HTTP_ACCEPT_LANGUAGE</td><td style="vertical-align:top;">:</td><td><div>en-US,en;q=0.5</div></td></tr><tr><td style="font-weight:bold;vertical-align:top;">HTTP_CACHE_CONTROL</td><td style="vertical-align:top;">:</td><td><div>max-age=0</div></td></tr><tr><td style="font-weight:bold;vertical-align:top;">HTTP_CONNECTION</td><td style="vertical-align:top;">:</td><td><div>keep-alive</div></td></tr><tr><td style="font-weight:bold;vertical-align:top;">HTTP_COOKIE</td><td style="vertical-align:top;">:</td><td><div>session_id_storecall=127.0.0.1-877b2f46-48d4-4f5c-9bf1-7a554108a852; session_id_admin=127.0.0.1-ecadb655-3eb7-4879-8f2b-9c8512330820; session_id_welcome=127.0.0.1-9e969749-b7bf-4e7a-926a-d3915331ea75; session_id_locadora=127.0.0.1-e7523c80-8154-418f-843d-1d064ae42102</div></td></tr><tr><td style="font-weight:bold;vertical-align:top;">HTTP_HOST</td><td style="vertical-align:top;">:</td><td><div>localhost:8000</div></td></tr><tr><td style="font-weight:bold;vertical-align:top;">HTTP_UPGRADE_INSECURE_REQUESTS</td><td style="vertical-align:top;">:</td><td><div>1</div></td></tr><tr><td style="font-weight:bold;vertical-align:top;">HTTP_USER_AGENT</td><td style="vertical-align:top;">:</td><td><div>Mozilla/5.0 (X11; Ubuntu; Linux x86_64; rv:49.0) Gecko/20100101 Firefox/49.0</div></td></tr><tr><td style="font-weight:bold;vertical-align:top;">PATH_INFO</td><td style="vertical-align:top;">:</td><td><div>/storecall/chamada/nova_chamada</div></td></tr><tr><td style="font-weight:bold;vertical-align:top;">QUERY_STRING</td><td style="vertical-align:top;">:</td><td><div></div></td></tr><tr><td style="font-weight:bold;vertical-align:top;">REMOTE_ADDR</td><td style="vertical-align:top;">:</td><td><div>127.0.0.1</div></td></tr><tr><td style="font-weight:bold;vertical-align:top;">REMOTE_PORT</td><td style="vertical-align:top;">:</td><td><div>36334</div></td></tr><tr><td style="font-weight:bold;vertical-align:top;">REQUEST_METHOD</td><td style="vertical-align:top;">:</td><td><div>GET</div></td></tr><tr><td style="font-weight:bold;vertical-align:top;">SCRIPT_NAME</td><td style="vertical-align:top;">:</td><td><div></div></td></tr><tr><td style="font-weight:bold;vertical-align:top;">SERVER_NAME</td><td style="vertical-align:top;">:</td><td><div>ferr-LG400s</div></td></tr><tr><td style="font-weight:bold;vertical-align:top;">SERVER_PORT</td><td style="vertical-align:top;">:</td><td><div>8000</div></td></tr><tr><td style="font-weight:bold;vertical-align:top;">SERVER_PROTOCOL</td><td style="vertical-align:top;">:</td><td><div>HTTP/1.1</div></td></tr><tr><td style="font-weight:bold;vertical-align:top;">SERVER_SOFTWARE</td><td style="vertical-align:top;">:</td><td><div>Rocket 1.2.6</div></td></tr><tr><td style="font-weight:bold;vertical-align:top;">app_folders</td><td style="vertical-align:top;">:</td><td><div>set([&#x27;/opt/web2py/applications/storecall/&#x27;, &#x27;/opt/web2py/applications/admin/&#x27;, &#x27;/opt/web2py/applications/locadora/&#x27;, &#x27;/opt/web2py/applications/blog/&#x27;, &#x27;/opt/web2py/applications/welcome/&#x27;])</div></td></tr><tr><td style="font-weight:bold;vertical-align:top;">applications_parent</td><td style="vertical-align:top;">:</td><td><div>/opt/web2py</div></td></tr><tr><td style="font-weight:bold;vertical-align:top;">cmd_args</td><td style="vertical-align:top;">:</td><td><div><table></table></div></td></tr><tr><td style="font-weight:bold;vertical-align:top;">cmd_options</td><td style="vertical-align:top;">:</td><td><div>&lt;Values at 0x7fb27e7576c8: {&#x27;verbose&#x27;: False, &#x27;ip&#x27;: &#x27;127.0.0.1&#x27;, &#x27;debuglevel&#x27;: 30, &#x27;with_scheduler&#x27;: False, &#x27;shutdown_timeout&#x27;: 5, &#x27;taskbar&#x27;: False, &#x27;with_coverage&#x27;: False, &#x27;pid_filename&#x27;: &#x27;httpserver.pid&#x27;, &#x27;maxthreads&#x27;: None, &#x27;softcron&#x27;: False, &#x27;server_name&#x27;: &#x27;ferr-LG400s&#x27;, &#x27;bpython&#x27;: False, &#x27;nogui&#x27;: False, &#x27;port&#x27;: 8000, &#x27;print_errors&#x27;: False, &#x27;extcron&#x27;: False, &#x27;runcron&#x27;: False, &#x27;run_system_tests&#x27;: False, &#x27;test&#x27;: None, &#x27;folder&#x27;: &#x27;/opt/web2py&#x27;, &#x27;config&#x27;: &#x27;&#x27;, &#x27;minthreads&#x27;: None, &#x27;shell&#x27;: None, &#x27;run&#x27;: &#x27;&#x27;, &#x27;log_filename&#x27;: &#x27;httpserver.log&#x27;, &#x27;profiler_dir&#x27;: None, &#x27;args&#x27;: [&#x27;&#x27;], &#x27;socket_timeout&#x27;: 5, &#x27;ssl_ca_certificate&#x27;: None, &#x27;scheduler&#x27;: None, &#x27;interfaces&#x27;: None, &#x27;ssl_private_key&#x27;: &#x27;&#x27;, &#x27;gae&#x27;: None, &#x27;password&#x27;: &#x27;******&#x27;, &#x27;request_queue_size&#x27;: 5, &#x27;ssl_certificate&#x27;: &#x27;&#x27;, &#x27;cronjob&#x27;: False, &#x27;numthreads&#x27;: None, &#x27;quiet&#x27;: False, &#x27;import_models&#x27;: False, &#x27;timeout&#x27;: 10, &#x27;plain&#x27;: False, &#x27;nobanner&#x27;: False}&gt;</div></td></tr><tr><td style="font-weight:bold;vertical-align:top;">db_sessions</td><td style="vertical-align:top;">:</td><td><div>set([])</div></td></tr><tr><td style="font-weight:bold;vertical-align:top;">debugging</td><td style="vertical-align:top;">:</td><td><div>False</div></td></tr><tr><td style="font-weight:bold;vertical-align:top;">gluon_parent</td><td style="vertical-align:top;">:</td><td><div>/opt/web2py</div></td></tr><tr><td style="font-weight:bold;vertical-align:top;">http_accept</td><td style="vertical-align:top;">:</td><td><div>text/html,application/xhtml+xml,application/xml;q=0.9,*/*;q=0.8</div></td></tr><tr><td style="font-weight:bold;vertical-align:top;">http_accept_encoding</td><td style="vertical-align:top;">:</td><td><div>gzip, deflate</div></td></tr><tr><td style="font-weight:bold;vertical-align:top;">http_accept_language</td><td style="vertical-align:top;">:</td><td><div>en-US,en;q=0.5</div></td></tr><tr><td style="font-weight:bold;vertical-align:top;">http_cache_control</td><td style="vertical-align:top;">:</td><td><div>max-age=0</div></td></tr><tr><td style="font-weight:bold;vertical-align:top;">http_connection</td><td style="vertical-align:top;">:</td><td><div>keep-alive</div></td></tr><tr><td style="font-weight:bold;vertical-align:top;">http_cookie</td><td style="vertical-align:top;">:</td><td><div>session_id_storecall=127.0.0.1-877b2f46-48d4-4f5c-9bf1-7a554108a852; session_id_admin=127.0.0.1-ecadb655-3eb7-4879-8f2b-9c8512330820; session_id_welcome=127.0.0.1-9e969749-b7bf-4e7a-926a-d3915331ea75; session_id_locadora=127.0.0.1-e7523c80-8154-418f-843d-1d064ae42102</div></td></tr><tr><td style="font-weight:bold;vertical-align:top;">http_host</td><td style="vertical-align:top;">:</td><td><div>localhost:8000</div></td></tr><tr><td style="font-weight:bold;vertical-align:top;">http_upgrade_insecure_requests</td><td style="vertical-align:top;">:</td><td><div>1</div></td></tr><tr><td style="font-weight:bold;vertical-align:top;">http_user_agent</td><td style="vertical-align:top;">:</td><td><div>Mozilla/5.0 (X11; Ubuntu; Linux x86_64; rv:49.0) Gecko/20100101 Firefox/49.0</div></td></tr><tr><td style="font-weight:bold;vertical-align:top;">is_jython</td><td style="vertical-align:top;">:</td><td><div>False</div></td></tr><tr><td style="font-weight:bold;vertical-align:top;">is_pypy</td><td style="vertical-align:top;">:</td><td><div>False</div></td></tr><tr><td style="font-weight:bold;vertical-align:top;">is_source</td><td style="vertical-align:top;">:</td><td><div>True</div></td></tr><tr><td style="font-weight:bold;vertical-align:top;">local_hosts</td><td style="vertical-align:top;">:</td><td><div><table><tr><td><div>::1</div></td></tr><tr><td><div>127.0.1.1</div></td></tr><tr><td><div>::ffff:127.0.0.1</div></td></tr><tr><td><div>127.0.0.1</div></td></tr><tr><td><div>ferr-LG400s</div></td></tr></table></div></td></tr><tr><td style="font-weight:bold;vertical-align:top;">path_info</td><td style="vertical-align:top;">:</td><td><div>/storecall/chamada/nova_chamada</div></td></tr><tr><td style="font-weight:bold;vertical-align:top;">query_string</td><td style="vertical-align:top;">:</td><td><div></div></td></tr><tr><td style="font-weight:bold;vertical-align:top;">remote_addr</td><td style="vertical-align:top;">:</td><td><div>127.0.0.1</div></td></tr><tr><td style="font-weight:bold;vertical-align:top;">remote_port</td><td style="vertical-align:top;">:</td><td><div>36334</div></td></tr><tr><td style="font-weight:bold;vertical-align:top;">request_method</td><td style="vertical-align:top;">:</td><td><div>GET</div></td></tr><tr><td style="font-weight:bold;vertical-align:top;">request_uri</td><td style="vertical-align:top;">:</td><td><div>/storecall/chamada/nova_chamada</div></td></tr><tr><td style="font-weight:bold;vertical-align:top;">script_name</td><td style="vertical-align:top;">:</td><td><div></div></td></tr><tr><td style="font-weight:bold;vertical-align:top;">server_name</td><td style="vertical-align:top;">:</td><td><div>ferr-LG400s</div></td></tr><tr><td style="font-weight:bold;vertical-align:top;">server_port</td><td style="vertical-align:top;">:</td><td><div>8000</div></td></tr><tr><td style="font-weight:bold;vertical-align:top;">server_protocol</td><td style="vertical-align:top;">:</td><td><div>HTTP/1.1</div></td></tr><tr><td style="font-weight:bold;vertical-align:top;">server_software</td><td style="vertical-align:top;">:</td><td><div>Rocket 1.2.6</div></td></tr><tr><td style="font-weight:bold;vertical-align:top;">web2py_path</td><td style="vertical-align:top;">:</td><td><div>/opt/web2py</div></td></tr><tr><td style="font-weight:bold;vertical-align:top;">web2py_version</td><td style="vertical-align:top;">:</td><td><div>2.14.6-stable+timestamp.2016.05.10.00.21.47</div></td></tr><tr><td style="font-weight:bold;vertical-align:top;">wsgi.errors</td><td style="vertical-align:top;">:</td><td><div>&lt;open file &#x27;&lt;stderr&gt;&#x27;, mode &#x27;w&#x27; at 0x7fb285ffd1e0&gt;</div></td></tr><tr><td style="font-weight:bold;vertical-align:top;">wsgi.file_wrapper</td><td style="vertical-align:top;">:</td><td><div>&lt;class wsgiref.util.FileWrapper at 0x7fb27e80a050&gt;</div></td></tr><tr><td style="font-weight:bold;vertical-align:top;">wsgi.input</td><td style="vertical-align:top;">:</td><td><div>&lt;socket._fileobject object at 0x7fb2743f05d0&gt;</div></td></tr><tr><td style="font-weight:bold;vertical-align:top;">wsgi.multiprocess</td><td style="vertical-align:top;">:</td><td><div>False</div></td></tr><tr><td style="font-weight:bold;vertical-align:top;">wsgi.multithread</td><td style="vertical-align:top;">:</td><td><div>True</div></td></tr><tr><td style="font-weight:bold;vertical-align:top;">wsgi.run_once</td><td style="vertical-align:top;">:</td><td><div>False</div></td></tr><tr><td style="font-weight:bold;vertical-align:top;">wsgi.url_scheme</td><td style="vertical-align:top;">:</td><td><div>http</div></td></tr><tr><td style="font-weight:bold;vertical-align:top;">wsgi.version</td><td style="vertical-align:top;">:</td><td><div><table><tr><td><div>1</div></td></tr><tr><td><div>0</div></td></tr></table></div></td></tr><tr><td style="font-weight:bold;vertical-align:top;">wsgi_errors</td><td style="vertical-align:top;">:</td><td><div>&lt;open file &#x27;&lt;stderr&gt;&#x27;, mode &#x27;w&#x27; at 0x7fb285ffd1e0&gt;</div></td></tr><tr><td style="font-weight:bold;vertical-align:top;">wsgi_file_wrapper</td><td style="vertical-align:top;">:</td><td><div>&lt;class wsgiref.util.FileWrapper at 0x7fb27e80a050&gt;</div></td></tr><tr><td style="font-weight:bold;vertical-align:top;">wsgi_input</td><td style="vertical-align:top;">:</td><td><div>&lt;socket._fileobject object at 0x7fb2743f05d0&gt;</div></td></tr><tr><td style="font-weight:bold;vertical-align:top;">wsgi_multiprocess</td><td style="vertical-align:top;">:</td><td><div>False</div></td></tr><tr><td style="font-weight:bold;vertical-align:top;">wsgi_multithread</td><td style="vertical-align:top;">:</td><td><div>True</div></td></tr><tr><td style="font-weight:bold;vertical-align:top;">wsgi_run_once</td><td style="vertical-align:top;">:</td><td><div>False</div></td></tr><tr><td style="font-weight:bold;vertical-align:top;">wsgi_url_scheme</td><td style="vertical-align:top;">:</td><td><div>http</div></td></tr><tr><td style="font-weight:bold;vertical-align:top;">wsgi_version</td><td style="vertical-align:top;">:</td><td><div><table><tr><td><div>1</div></td></tr><tr><td><div>0</div></td></tr></table></div></td></tr></table></div></td></tr><tr><td style="font-weight:bold;vertical-align:top;">extension</td><td style="vertical-align:top;">:</td><td><div>html</div></td></tr><tr><td style="font-weight:bold;vertical-align:top;">folder</td><td style="vertical-align:top;">:</td><td><div>/opt/web2py/applications/storecall/</div></td></tr><tr><td style="font-weight:bold;vertical-align:top;">function</td><td style="vertical-align:top;">:</td><td><div>nova_chamada</div></td></tr><tr><td style="font-weight:bold;vertical-align:top;">global_settings</td><td style="vertical-align:top;">:</td><td><div><table><tr><td style="font-weight:bold;vertical-align:top;">app_folders</td><td style="vertical-align:top;">:</td><td><div>set([&#x27;/opt/web2py/applications/storecall/&#x27;, &#x27;/opt/web2py/applications/admin/&#x27;, &#x27;/opt/web2py/applications/locadora/&#x27;, &#x27;/opt/web2py/applications/blog/&#x27;, &#x27;/opt/web2py/applications/welcome/&#x27;])</div></td></tr><tr><td style="font-weight:bold;vertical-align:top;">applications_parent</td><td style="vertical-align:top;">:</td><td><div>/opt/web2py</div></td></tr><tr><td style="font-weight:bold;vertical-align:top;">cmd_args</td><td style="vertical-align:top;">:</td><td><div><table></table></div></td></tr><tr><td style="font-weight:bold;vertical-align:top;">cmd_options</td><td style="vertical-align:top;">:</td><td><div>&lt;Values at 0x7fb27e7576c8: {&#x27;verbose&#x27;: False, &#x27;ip&#x27;: &#x27;127.0.0.1&#x27;, &#x27;debuglevel&#x27;: 30, &#x27;with_scheduler&#x27;: False, &#x27;shutdown_timeout&#x27;: 5, &#x27;taskbar&#x27;: False, &#x27;with_coverage&#x27;: False, &#x27;pid_filename&#x27;: &#x27;httpserver.pid&#x27;, &#x27;maxthreads&#x27;: None, &#x27;softcron&#x27;: False, &#x27;server_name&#x27;: &#x27;ferr-LG400s&#x27;, &#x27;bpython&#x27;: False, &#x27;nogui&#x27;: False, &#x27;port&#x27;: 8000, &#x27;print_errors&#x27;: False, &#x27;extcron&#x27;: False, &#x27;runcron&#x27;: False, &#x27;run_system_tests&#x27;: False, &#x27;test&#x27;: None, &#x27;folder&#x27;: &#x27;/opt/web2py&#x27;, &#x27;config&#x27;: &#x27;&#x27;, &#x27;minthreads&#x27;: None, &#x27;shell&#x27;: None, &#x27;run&#x27;: &#x27;&#x27;, &#x27;log_filename&#x27;: &#x27;httpserver.log&#x27;, &#x27;profiler_dir&#x27;: None, &#x27;args&#x27;: [&#x27;&#x27;], &#x27;socket_timeout&#x27;: 5, &#x27;ssl_ca_certificate&#x27;: None, &#x27;scheduler&#x27;: None, &#x27;interfaces&#x27;: None, &#x27;ssl_private_key&#x27;: &#x27;&#x27;, &#x27;gae&#x27;: None, &#x27;password&#x27;: &#x27;******&#x27;, &#x27;request_queue_size&#x27;: 5, &#x27;ssl_certificate&#x27;: &#x27;&#x27;, &#x27;cronjob&#x27;: False, &#x27;numthreads&#x27;: None, &#x27;quiet&#x27;: False, &#x27;import_models&#x27;: False, &#x27;timeout&#x27;: 10, &#x27;plain&#x27;: False, &#x27;nobanner&#x27;: False}&gt;</div></td></tr><tr><td style="font-weight:bold;vertical-align:top;">db_sessions</td><td style="vertical-align:top;">:</td><td><div>set([])</div></td></tr><tr><td style="font-weight:bold;vertical-align:top;">debugging</td><td style="vertical-align:top;">:</td><td><div>False</div></td></tr><tr><td style="font-weight:bold;vertical-align:top;">gluon_parent</td><td style="vertical-align:top;">:</td><td><div>/opt/web2py</div></td></tr><tr><td style="font-weight:bold;vertical-align:top;">is_jython</td><td style="vertical-align:top;">:</td><td><div>False</div></td></tr><tr><td style="font-weight:bold;vertical-align:top;">is_pypy</td><td style="vertical-align:top;">:</td><td><div>False</div></td></tr><tr><td style="font-weight:bold;vertical-align:top;">is_source</td><td style="vertical-align:top;">:</td><td><div>True</div></td></tr><tr><td style="font-weight:bold;vertical-align:top;">local_hosts</td><td style="vertical-align:top;">:</td><td><div><table><tr><td><div>::1</div></td></tr><tr><td><div>127.0.1.1</div></td></tr><tr><td><div>::ffff:127.0.0.1</div></td></tr><tr><td><div>127.0.0.1</div></td></tr><tr><td><div>ferr-LG400s</div></td></tr></table></div></td></tr><tr><td style="font-weight:bold;vertical-align:top;">web2py_version</td><td style="vertical-align:top;">:</td><td><div>2.14.6-stable+timestamp.2016.05.10.00.21.47</div></td></tr></table></div></td></tr><tr><td style="font-weight:bold;vertical-align:top;">is_https</td><td style="vertical-align:top;">:</td><td><div>False</div></td></tr><tr><td style="font-weight:bold;vertical-align:top;">is_local</td><td style="vertical-align:top;">:</td><td><div>True</div></td></tr><tr><td style="font-weight:bold;vertical-align:top;">is_restful</td><td style="vertical-align:top;">:</td><td><div>False</div></td></tr><tr><td style="font-weight:bold;vertical-align:top;">is_scheduler</td><td style="vertical-align:top;">:</td><td><div>False</div></td></tr><tr><td style="font-weight:bold;vertical-align:top;">is_shell</td><td style="vertical-align:top;">:</td><td><div>False</div></td></tr><tr><td style="font-weight:bold;vertical-align:top;">now</td><td style="vertical-align:top;">:</td><td><div>datetime.datetime(2016, 10, 3, 15, 13, 32, 27372)</div></td></tr><tr><td style="font-weight:bold;vertical-align:top;">raw_args</td><td style="vertical-align:top;">:</td><td><div></div></td></tr><tr><td style="font-weight:bold;vertical-align:top;">raw_extension</td><td style="vertical-align:top;">:</td><td><div>None</div></td></tr><tr><td style="font-weight:bold;vertical-align:top;">url</td><td style="vertical-align:top;">:</td><td><div>/storecall/chamada/nova_chamada</div></td></tr><tr><td style="font-weight:bold;vertical-align:top;">utcnow</td><td style="vertical-align:top;">:</td><td><div>datetime.datetime(2016, 10, 3, 18, 13, 32, 27393)</div></td></tr><tr><td style="font-weight:bold;vertical-align:top;">wsgi</td><td style="vertical-align:top;">:</td><td><div>&lt;gluon.main.LazyWSGI object at 0x7fb2741d4710&gt;</div></td></tr></table></div>'
tRp58
sS'frames'
p59
(lp60
(dp61
S'file'
p62
S'/opt/web2py/gluon/restricted.py'
p63
sS'dump'
p64
(dp65
S'environment'
p66
S"{'A': <class 'gluon.html.A'>, 'ANY_OF': <class 'gluon.validators.ANY_OF'>, 'ASSIGNJS': <function ASSIGNJS>, 'AppConfig': <function AppConfig>, 'Auth': <class 'gluon.tools.Auth'>, 'B': <class 'gluon.html.B'>, 'BEAUTIFY': <class 'gluon.html.BEAUTIFY'>, 'BODY': <class 'gluon.html.BODY'>, 'BR': <class 'gluon.html.BR'>, 'BUTTON': <class 'gluon.html.BUTTON'>, ...}"
p67
sS'ccode'
p68
S'<code object <module> at 0x7fb2743f0b30, file "/...ications/storecall/models/dbChamadas.py", line 1>'
p69
ssS'lnum'
p70
I227
sS'lines'
p71
(dp72
I224
S'            ccode = code'
p73
sI225
S'        else:'
p74
sI226
S'            ccode = compile2(code, layer)'
p75
sI227
S'        exec ccode in environment'
p76
sI228
S'    except HTTP:'
p77
sI229
S'        raise'
p78
sI230
S'    except RestrictedError:'
p79
sI231
S'        # do not encapsulate (obfuscate) the original RestrictedError'
p80
sI222
S'    try:'
p81
sI223
S'        if isinstance(code, types.CodeType):'
p82
ssS'call'
p83
S'(code="Chamadas = db.define_table(\'chamadas\',\\n    auth....db.chamadas.atendente_acionamento.readable = True", environment={\'A\': <class \'gluon.html.A\'>, \'ANY_OF\': <class \'gluon.validators.ANY_OF\'>, \'ASSIGNJS\': <function ASSIGNJS>, \'AppConfig\': <function AppConfig>, \'Auth\': <class \'gluon.tools.Auth\'>, \'B\': <class \'gluon.html.B\'>, \'BEAUTIFY\': <class \'gluon.html.BEAUTIFY\'>, \'BODY\': <class \'gluon.html.BODY\'>, \'BR\': <class \'gluon.html.BR\'>, \'BUTTON\': <class \'gluon.html.BUTTON\'>, ...}, layer=\'/opt/web2py/applications/storecall/models/dbChamadas.py\')'
p84
sS'func'
p85
S'restricted'
p86
sa(dp87
g62
S'/opt/web2py/applications/storecall/models/dbChamadas.py'
p88
sg64
(dp89
S'default'
p90
S'undefined'
p91
sS'datetime'
p92
S"<module 'datetime' (built-in)>"
p93
sS'Field'
p94
S"<class 'pydal.objects.Field'>"
p95
sS'datetime.datetime'
p96
S"<type 'datetime.datetime'>"
p97
sS'label'
p98
g91
sS'builtinformat'
p99
S'<built-in function format>'
p100
ssg70
I4
sg71
(dp101
I2
S'    auth.signature,'
p102
sI3
S"    Field('protocolo', 'string', label='Protocolos', default='0000/000000000'),"
p103
sI4
S"    Field('data_acionamento', 'datetime', label='Acionado em:', default=datetime.datetime(format='%d/%m/%y')),"
p104
sI5
S"    Field('atendente_acionamento', 'reference auth_user', label='Atendente acionado: ', default=auth.user_id),"
p105
sI6
S"    Field('data_protocolo', 'datetime', label='Protocolado em:', default=datetime.datetime.today()),"
p106
sI7
S"    Field('atendente_protocolo', 'reference auth_user', label='Atendente do protocolo: ', default=auth.user_id),"
p107
sI8
S"    Field('identificador', 'string', label='Identificador(CPF/CNPJ)'),"
p108
sI9
S"    Field('nome', 'string', label='Nome'),"
p109
sI10
S"    Field('email', 'string', label='Email'),"
p110
sI11
S"    Field('telefone', 'string', label='Telefone'),"
p111
ssg83
S'()'
p112
sg85
S'<module>'
p113
sasS'pyver'
p114
S'Python 2.7.12: /usr/bin/python (prefix: /usr)'
p115
sS'session'
p116
g57
(S's\x02\t\x00\x00<div><table><tr><td style="font-weight:bold;vertical-align:top;">auth</td><td style="vertical-align:top;">:</td><td><div><table><tr><td style="font-weight:bold;vertical-align:top;">expiration</td><td style="vertical-align:top;">:</td><td><div>3600</div></td></tr><tr><td style="font-weight:bold;vertical-align:top;">hmac_key</td><td style="vertical-align:top;">:</td><td><div>215bbd6d-afea-484b-8f38-2316e4ee2081</div></td></tr><tr><td style="font-weight:bold;vertical-align:top;">last_visit</td><td style="vertical-align:top;">:</td><td><div>datetime.datetime(2016, 10, 3, 15, 13, 32, 27372)</div></td></tr><tr><td style="font-weight:bold;vertical-align:top;">remember_me</td><td style="vertical-align:top;">:</td><td><div>False</div></td></tr><tr><td style="font-weight:bold;vertical-align:top;">user</td><td style="vertical-align:top;">:</td><td><div><table><tr><td style="font-weight:bold;vertical-align:top;">cpf</td><td style="vertical-align:top;">:</td><td><div>01371780188</div></td></tr><tr><td style="font-weight:bold;vertical-align:top;">email</td><td style="vertical-align:top;">:</td><td><div>ferr.atendimento@gmail.com</div></td></tr><tr><td style="font-weight:bold;vertical-align:top;">first_name</td><td style="vertical-align:top;">:</td><td><div>Eduardo</div></td></tr><tr><td style="font-weight:bold;vertical-align:top;">id</td><td style="vertical-align:top;">:</td><td><div>4L</div></td></tr><tr><td style="font-weight:bold;vertical-align:top;">last_name</td><td style="vertical-align:top;">:</td><td><div>de Atendimento</div></td></tr><tr><td style="font-weight:bold;vertical-align:top;">registration_id</td><td style="vertical-align:top;">:</td><td><div></div></td></tr><tr><td style="font-weight:bold;vertical-align:top;">registration_key</td><td style="vertical-align:top;">:</td><td><div></div></td></tr><tr><td style="font-weight:bold;vertical-align:top;">reset_password_key</td><td style="vertical-align:top;">:</td><td><div></div></td></tr></table></div></td></tr><tr><td style="font-weight:bold;vertical-align:top;">user_groups</td><td style="vertical-align:top;">:</td><td><div><table></table></div></td></tr></table></div></td></tr><tr><td style="font-weight:bold;vertical-align:top;">flash</td><td style="vertical-align:top;">:</td><td><div>None</div></td></tr></table></div>'
tRp117
sS'etype'
p118
S"<type 'exceptions.TypeError'>"
p119
sS'date'
p120
S'Mon Oct  3 15:13:32 2016'
p121
sS'response'
p122
g57
(S'sn\x17\x00\x00<div><table><tr><td style="font-weight:bold;vertical-align:top;">body</td><td style="vertical-align:top;">:</td><td><div>&lt;cStringIO.StringO object at 0x7fb274051688&gt;</div></td></tr><tr><td style="font-weight:bold;vertical-align:top;">cookies</td><td style="vertical-align:top;">:</td><td><div><table><tr><td style="font-weight:bold;vertical-align:top;">session_id_storecall</td><td style="vertical-align:top;">:</td><td><div>127.0.0.1-877b2f46-48d4-4f5c-9bf1-7a554108a852<table><tr><td style="font-weight:bold;vertical-align:top;">comment</td><td style="vertical-align:top;">:</td><td><div></div></td></tr><tr><td style="font-weight:bold;vertical-align:top;">domain</td><td style="vertical-align:top;">:</td><td><div></div></td></tr><tr><td style="font-weight:bold;vertical-align:top;">expires</td><td style="vertical-align:top;">:</td><td><div></div></td></tr><tr><td style="font-weight:bold;vertical-align:top;">httponly</td><td style="vertical-align:top;">:</td><td><div></div></td></tr><tr><td style="font-weight:bold;vertical-align:top;">max-age</td><td style="vertical-align:top;">:</td><td><div></div></td></tr><tr><td style="font-weight:bold;vertical-align:top;">path</td><td style="vertical-align:top;">:</td><td><div>/</div></td></tr><tr><td style="font-weight:bold;vertical-align:top;">secure</td><td style="vertical-align:top;">:</td><td><div></div></td></tr><tr><td style="font-weight:bold;vertical-align:top;">version</td><td style="vertical-align:top;">:</td><td><div></div></td></tr></table></div></td></tr></table></div></td></tr><tr><td style="font-weight:bold;vertical-align:top;">delimiters</td><td style="vertical-align:top;">:</td><td><div><table><tr><td><div>{{</div></td></tr><tr><td><div>}}</div></td></tr></table></div></td></tr><tr><td style="font-weight:bold;vertical-align:top;">files</td><td style="vertical-align:top;">:</td><td><div><table></table></div></td></tr><tr><td style="font-weight:bold;vertical-align:top;">flash</td><td style="vertical-align:top;">:</td><td><div></div></td></tr><tr><td style="font-weight:bold;vertical-align:top;">form_label_separator</td><td style="vertical-align:top;">:</td><td><div></div></td></tr><tr><td style="font-weight:bold;vertical-align:top;">formstyle</td><td style="vertical-align:top;">:</td><td><div>bootstrap3_inline</div></td></tr><tr><td style="font-weight:bold;vertical-align:top;">generic_patterns</td><td style="vertical-align:top;">:</td><td><div><table><tr><td><div>*</div></td></tr></table></div></td></tr><tr><td style="font-weight:bold;vertical-align:top;">headers</td><td style="vertical-align:top;">:</td><td><div><table><tr><td style="font-weight:bold;vertical-align:top;">X-Powered-By</td><td style="vertical-align:top;">:</td><td><div>web2py</div></td></tr></table></div></td></tr><tr><td style="font-weight:bold;vertical-align:top;">menu</td><td style="vertical-align:top;">:</td><td><div><table></table></div></td></tr><tr><td style="font-weight:bold;vertical-align:top;">meta</td><td style="vertical-align:top;">:</td><td><div><table></table></div></td></tr><tr><td style="font-weight:bold;vertical-align:top;">models_to_run</td><td style="vertical-align:top;">:</td><td><div><table><tr><td><div>^\\w+\\.py$</div></td></tr><tr><td><div>^chamada/\\w+\\.py$</div></td></tr><tr><td><div>^chamada/nova_chamada/\\w+\\.py$</div></td></tr></table></div></td></tr><tr><td style="font-weight:bold;vertical-align:top;">postprocessing</td><td style="vertical-align:top;">:</td><td><div><table></table></div></td></tr><tr><td style="font-weight:bold;vertical-align:top;">session_client</td><td style="vertical-align:top;">:</td><td><div>127.0.0.1</div></td></tr><tr><td style="font-weight:bold;vertical-align:top;">session_cookie_compression_level</td><td style="vertical-align:top;">:</td><td><div>None</div></td></tr><tr><td style="font-weight:bold;vertical-align:top;">session_cookie_expires</td><td style="vertical-align:top;">:</td><td><div>None</div></td></tr><tr><td style="font-weight:bold;vertical-align:top;">session_data_name</td><td style="vertical-align:top;">:</td><td><div>session_data_storecall</div></td></tr><tr><td style="font-weight:bold;vertical-align:top;">session_file</td><td style="vertical-align:top;">:</td><td><div>&lt;open file &#x27;/opt/web2py/applications/storecall/sessions/1fb/061/127.0.0.1-877b2f46-48d4-4f5c-9bf1-7a554108a852&#x27;, mode &#x27;rb+&#x27; at 0x7fb2740ea540&gt;</div></td></tr><tr><td style="font-weight:bold;vertical-align:top;">session_filename</td><td style="vertical-align:top;">:</td><td><div>/opt/web2py/applications/storecall/sessions/127.0.0.1-877b2f46-48d4-4f5c-9bf1-7a554108a852</div></td></tr><tr><td style="font-weight:bold;vertical-align:top;">session_hash</td><td style="vertical-align:top;">:</td><td><div>672b8fdcaa0d56c186fefdebc07f7d1b</div></td></tr><tr><td style="font-weight:bold;vertical-align:top;">session_id</td><td style="vertical-align:top;">:</td><td><div>127.0.0.1-877b2f46-48d4-4f5c-9bf1-7a554108a852</div></td></tr><tr><td style="font-weight:bold;vertical-align:top;">session_id_name</td><td style="vertical-align:top;">:</td><td><div>session_id_storecall</div></td></tr><tr><td style="font-weight:bold;vertical-align:top;">session_locked</td><td style="vertical-align:top;">:</td><td><div>True</div></td></tr><tr><td style="font-weight:bold;vertical-align:top;">session_masterapp</td><td style="vertical-align:top;">:</td><td><div>storecall</div></td></tr><tr><td style="font-weight:bold;vertical-align:top;">session_new</td><td style="vertical-align:top;">:</td><td><div>False</div></td></tr><tr><td style="font-weight:bold;vertical-align:top;">session_storage_type</td><td style="vertical-align:top;">:</td><td><div>file</div></td></tr><tr><td style="font-weight:bold;vertical-align:top;">status</td><td style="vertical-align:top;">:</td><td><div>200</div></td></tr><tr><td style="font-weight:bold;vertical-align:top;">view</td><td style="vertical-align:top;">:</td><td><div>chamada/nova_chamada.html</div></td></tr></table></div>'
tRp123
sS'locals'
p124
(dp125
S'Service'
p126
S"<class 'gluon.tools.Service'>"
p127
sS'OBJECT'
p128
S"<class 'gluon.html.OBJECT'>"
p129
sS'datetime'
p130
S"<module 'datetime' (built-in)>"
p131
sg116
S"<Storage {'_formkey[chamadas/create]': ['ec499b0...gin]': ['244abc59-0b3d-43d7-b453-a4678f23efc9']}>"
p132
sS'LINK'
p133
S"<class 'gluon.html.LINK'>"
p134
sS'BR'
p135
S"<class 'gluon.html.BR'>"
p136
sS'local_import'
p137
S'<function <lambda>>'
p138
sS'OPTGROUP'
p139
S"<class 'gluon.html.OPTGROUP'>"
p140
sS'LI'
p141
S"<class 'gluon.html.LI'>"
p142
sS'PRE'
p143
S"<class 'gluon.html.PRE'>"
p144
sS'IS_INT_IN_RANGE'
p145
S"<class 'gluon.validators.IS_INT_IN_RANGE'>"
p146
sS'IS_LOWER'
p147
S"<class 'gluon.validators.IS_LOWER'>"
p148
sS'IS_STRONG'
p149
S"<class 'gluon.validators.IS_STRONG'>"
p150
sS'cache'
p151
S'<gluon.cache.Cache object>'
p152
sS'IS_IN_DB'
p153
S"<class 'gluon.validators.IS_IN_DB'>"
p154
sS'TAG'
p155
S'<gluon.html.__TAG__ object>'
p156
sS'SQLField'
p157
S"<class 'pydal.objects.Field'>"
p158
sS'mail'
p159
S'<gluon.tools.Mail object>'
p160
sS'BODY'
p161
S"<class 'gluon.html.BODY'>"
p162
sS'IS_DATE_IN_RANGE'
p163
S"<class 'gluon.validators.IS_DATE_IN_RANGE'>"
p164
sS'TH'
p165
S"<class 'gluon.html.TH'>"
p166
sS'URL'
p167
S'<function URL>'
p168
sS'__file__'
p169
S"'/opt/web2py/applications/storecall/models/dbChamadas.py'"
p170
sS'db'
p171
S'<DAL uri="sqlite://storage.sqlite">'
p172
sS'auth'
p173
S'<gluon.tools.Auth object>'
p174
sS'P'
S"<class 'gluon.html.P'>"
p175
sS'TFOOT'
p176
S"<class 'gluon.html.TFOOT'>"
p177
sS'XHTML'
p178
S"<class 'gluon.html.XHTML'>"
p179
sS'SQLDB'
p180
S"<class 'pydal.base.DAL'>"
p181
sS'ON'
p182
S'True'
p183
sS'OL'
p184
S"<class 'gluon.html.OL'>"
p185
sS'TEXTAREA'
p186
S"<class 'gluon.html.TEXTAREA'>"
p187
sS'MENU'
p188
S"<class 'gluon.html.MENU'>"
p189
sS'LOAD'
p190
S'<function LOAD>'
p191
sS'CODE'
p192
S"<class 'gluon.html.CODE'>"
p193
sS'HTTP'
p194
S"<class 'gluon.http.HTTP'>"
p195
sS'HR'
p196
S"<class 'gluon.html.HR'>"
p197
sS'IS_DATETIME'
p198
S"<class 'gluon.validators.IS_DATETIME'>"
p199
sS'HEAD'
p200
S"<class 'gluon.html.HEAD'>"
p201
sS'LABEL'
p202
S"<class 'gluon.html.LABEL'>"
p203
sS'CLEANUP'
p204
S"<class 'gluon.validators.CLEANUP'>"
p205
sS'plugins'
p206
S'<gluon.tools.PluginManager object>'
p207
sS'SELECT'
p208
S"<class 'gluon.html.SELECT'>"
p209
sS'CENTER'
p210
S"<class 'gluon.html.CENTER'>"
p211
sS'Auth'
p212
S"<class 'gluon.tools.Auth'>"
p213
sS'__builtins__'
p214
S"{'ArithmeticError': <type 'exceptions.ArithmeticError'>, 'AssertionError': <type 'exceptions.AssertionError'>, 'AttributeError': <type 'exceptions.AttributeError'>, 'BaseException': <type 'exceptions.BaseException'>, 'BufferError': <type 'exceptions.BufferError'>, 'BytesWarning': <type 'exceptions.BytesWarning'>, 'DeprecationWarning': <type 'exceptions.DeprecationWarning'>, 'EOFError': <type 'exceptions.EOFError'>, 'Ellipsis': Ellipsis, 'EnvironmentError': <type 'exceptions.EnvironmentError'>, ...}"
p215
sS'HTML'
p216
S"<class 'gluon.html.HTML'>"
p217
sS'SQLFORM'
p218
S"<class 'gluon.sqlhtml.SQLFORM'>"
p219
sS'EM'
p220
S"<class 'gluon.html.EM'>"
p221
sS'redirect'
p222
S'<function redirect>'
p223
sS'FIELDSET'
p224
S"<class 'gluon.html.FIELDSET'>"
p225
sS'IS_EQUAL_TO'
p226
S"<class 'gluon.validators.IS_EQUAL_TO'>"
p227
sS'embed64'
p228
S'<function embed64>'
p229
sS'IS_LIST_OF'
p230
S"<class 'gluon.validators.IS_LIST_OF'>"
p231
sS'__name__'
p232
S"'__restricted__'"
p233
sS'EMBED'
p234
S"<class 'gluon.html.EMBED'>"
p235
sS'FORM'
p236
S"<class 'gluon.html.FORM'>"
p237
sS'myconf'
p238
S"{'forms': {'formstyle': 'bootstrap3_inline', 'se...': {'names': 'localhost:*, 127.0.0.1:*, *:*, *'}}"
p239
sS'H2'
p240
S"<class 'gluon.html.H2'>"
p241
sS'H3'
p242
S"<class 'gluon.html.H3'>"
p243
sS'AppConfig'
p244
S'<function AppConfig>'
p245
sS'H1'
p246
S"<class 'gluon.html.H1'>"
p247
sS'H6'
p248
S"<class 'gluon.html.H6'>"
p249
sS'H4'
p250
S"<class 'gluon.html.H4'>"
p251
sS'H5'
p252
S"<class 'gluon.html.H5'>"
p253
sS'UL'
p254
S"<class 'gluon.html.UL'>"
p255
sS'IS_UPPER'
p256
S"<class 'gluon.validators.IS_UPPER'>"
p257
sS'xmlescape'
p258
S'<function xmlescape>'
p259
sS'IS_TIME'
p260
S"<class 'gluon.validators.IS_TIME'>"
p261
sS'OPTION'
p262
S"<class 'gluon.html.OPTION'>"
p263
sS'TITLE'
p264
S"<class 'gluon.html.TITLE'>"
p265
sS'CRYPT'
p266
S"<class 'gluon.validators.CRYPT'>"
p267
sS'IS_EMPTY_OR'
p268
S"<class 'gluon.validators.IS_EMPTY_OR'>"
p269
sS'MARKMIN'
p270
S"<class 'gluon.html.MARKMIN'>"
p271
sS'INPUT'
p272
S"<class 'gluon.html.INPUT'>"
p273
sS'STRONG'
p274
S"<class 'gluon.html.STRONG'>"
p275
sS'COL'
p276
S"<class 'gluon.html.COL'>"
p277
sS'service'
p278
S'<gluon.tools.Service object>'
p279
sS'SCRIPT'
p280
S"<class 'gluon.html.SCRIPT'>"
p281
sS'TABLE'
p282
S"<class 'gluon.html.TABLE'>"
p283
sS'IS_IPV4'
p284
S"<class 'gluon.validators.IS_IPV4'>"
p285
sS'IS_LENGTH'
p286
S"<class 'gluon.validators.IS_LENGTH'>"
p287
sS'IS_IPV6'
p288
S"<class 'gluon.validators.IS_IPV6'>"
p289
sS'XML'
p290
S"<class 'gluon.html.XML'>"
p291
sS'B'
S"<class 'gluon.html.B'>"
p292
sS'IMG'
p293
S"<class 'gluon.html.IMG'>"
p294
sS'SQLTABLE'
p295
S"<class 'gluon.sqlhtml.SQLTABLE'>"
p296
sS'IS_MATCH'
p297
S"<class 'gluon.validators.IS_MATCH'>"
p298
sS'IS_ALPHANUMERIC'
p299
S"<class 'gluon.validators.IS_ALPHANUMERIC'>"
p300
sS'SPAN'
p301
S"<class 'gluon.html.SPAN'>"
p302
sS'IS_JSON'
p303
S"<class 'gluon.validators.IS_JSON'>"
p304
sS'IS_IPADDRESS'
p305
S"<class 'gluon.validators.IS_IPADDRESS'>"
p306
sS'Sistemas'
p307
S'<Table sistemas (id, nome)>'
p308
sS'IS_SLUG'
p309
S"<class 'gluon.validators.IS_SLUG'>"
p310
sS'BEAUTIFY'
p311
S"<class 'gluon.html.BEAUTIFY'>"
p312
sS'META'
p313
S"<class 'gluon.html.META'>"
p314
sS'BUTTON'
p315
S"<class 'gluon.html.BUTTON'>"
p316
sS'IS_DATE'
p317
S"<class 'gluon.validators.IS_DATE'>"
p318
sS'IS_EMAIL'
p319
S"<class 'gluon.validators.IS_EMAIL'>"
p320
sS'IS_NOT_EMPTY'
p321
S"<class 'gluon.validators.IS_NOT_EMPTY'>"
p322
sS'IS_FLOAT_IN_RANGE'
p323
S"<class 'gluon.validators.IS_FLOAT_IN_RANGE'>"
p324
sS'TBODY'
p325
S"<class 'gluon.html.TBODY'>"
p326
sS'CAT'
p327
S"<class 'gluon.html.CAT'>"
p328
sS'Field'
p329
S"<class 'pydal.objects.Field'>"
p330
sS'IS_LIST_OF_EMAILS'
p331
S"<class 'gluon.validators.IS_LIST_OF_EMAILS'>"
p332
sS'DIV'
p333
S"<class 'gluon.html.DIV'>"
p334
sS'LEGEND'
p335
S"<class 'gluon.html.LEGEND'>"
p336
sS'COLGROUP'
p337
S"<class 'gluon.html.COLGROUP'>"
p338
sS'DAL'
p339
S"<class 'pydal.base.DAL'>"
p340
sS'ASSIGNJS'
p341
S'<function ASSIGNJS>'
p342
sS'TR'
p343
S"<class 'gluon.html.TR'>"
p344
sS'__package__'
p345
S'None'
p346
sS'IFRAME'
p347
S"<class 'gluon.html.IFRAME'>"
p348
sS'TD'
p349
S"<class 'gluon.html.TD'>"
p350
sS'PluginManager'
p351
S"<class 'gluon.tools.PluginManager'>"
p352
sS'IS_URL'
p353
S"<class 'gluon.validators.IS_URL'>"
p354
sS'A'
S"<class 'gluon.html.A'>"
p355
sS'STYLE'
p356
S"<class 'gluon.html.STYLE'>"
p357
sS'IS_DATETIME_IN_RANGE'
p358
S"<class 'gluon.validators.IS_DATETIME_IN_RANGE'>"
p359
sS'IS_IMAGE'
p360
S"<class 'gluon.validators.IS_IMAGE'>"
p361
sS'I'
S"<class 'gluon.html.I'>"
p362
sS'IS_NOT_IN_DB'
p363
S"<class 'gluon.validators.IS_NOT_IN_DB'>"
p364
sg122
S"<Storage {'body': <cStringIO.StringO object at 0...250d9ab18>, 'view': 'chamada/nova_chamada.html'}>"
p365
sS'THEAD'
p366
S"<class 'gluon.html.THEAD'>"
p367
sS'ANY_OF'
p368
S"<class 'gluon.validators.ANY_OF'>"
p369
sS'IS_NULL_OR'
p370
S"<class 'gluon.validators.IS_EMPTY_OR'>"
p371
sg56
S"<Storage {'_vars': None, 'function': 'nova_chama...'folder': '/opt/web2py/applications/storecall/'}>"
p372
sS'IS_EXPR'
p373
S"<class 'gluon.validators.IS_EXPR'>"
p374
sS'IS_IN_SET'
p375
S"<class 'gluon.validators.IS_IN_SET'>"
p376
sS'IS_UPLOAD_FILENAME'
p377
S"<class 'gluon.validators.IS_UPLOAD_FILENAME'>"
p378
sS'IS_DECIMAL_IN_RANGE'
p379
S"<class 'gluon.validators.IS_DECIMAL_IN_RANGE'>"
p380
sS'TT'
p381
S"<class 'gluon.html.TT'>"
p382
sS'T'
S'<gluon.languages.translator object>'
p383
sssS'traceback'
p384
S'Traceback (most recent call last):\n  File "/opt/web2py/gluon/restricted.py", line 227, in restricted\n    exec ccode in environment\n  File "/opt/web2py/applications/storecall/models/dbChamadas.py", line 4, in <module>\n    Field(\'data_acionamento\', \'datetime\', label=\'Acionado em:\', default=datetime.datetime(format=\'%d/%m/%y\')),\nTypeError: Required argument \'year\' (pos 1) not found\n'
p385
s.