(dp1
S'output'
p2
S'<type \'exceptions.SyntaxError\'> define_table argument is not a Field or Table: <form action="#" class="form-horizontal" enctype="multipart/form-data" method="post"><div class="form-group" id="chamadas_protocolo__row"><label class="readonly control-label col-sm-3" for="chamadas_protocolo" id="chamadas_protocolo__label">Protocolo</label><div class="col-sm-9">0000/000000000<span class="help-block"></span></div></div><div class="form-group" id="chamadas_data_acionamento__row"><label class="readonly control-label col-sm-3" for="chamadas_data_acionamento" id="chamadas_data_acionamento__label">Acionado em:</label><div class="col-sm-9">2016-10-02 16:14:35<span class="help-block"></span></div></div><div class="form-group" id="chamadas_atendente_acionamento__row"><label class="readonly control-label col-sm-3" for="chamadas_atendente_acionamento" id="chamadas_atendente_acionamento__label">Atendente acionado: </label><div class="col-sm-9">Eduardo de Atendimento (4)<span class="help-block"></span></div></div><div class="form-group" id="chamadas_identificador__row"><label class="control-label col-sm-3" for="chamadas_identificador" id="chamadas_identificador__label">Identificador(CPF/CNPJ)</label><div class="col-sm-9"><input class="form-control string" id="chamadas_identificador" name="identificador" type="text" value="" /><span class="help-block"></span></div></div><div class="form-group" id="chamadas_nome__row"><label class="control-label col-sm-3" for="chamadas_nome" id="chamadas_nome__label">Nome</label><div class="col-sm-9"><input class="form-control string" id="chamadas_nome" name="nome" type="text" value="" /><span class="help-block"></span></div></div><div class="form-group" id="chamadas_email__row"><label class="control-label col-sm-3" for="chamadas_email" id="chamadas_email__label">Email</label><div class="col-sm-9"><input class="form-control string" id="chamadas_email" name="email" type="text" value="" /><span class="help-block"></span></div></div><div class="form-group" id="chamadas_telefone__row"><label class="control-label col-sm-3" for="chamadas_telefone" id="chamadas_telefone__label">Telefone</label><div class="col-sm-9"><input class="form-control string" id="chamadas_telefone" name="telefone" type="text" value="" /><span class="help-block"></span></div></div><div class="form-group" id="chamadas_cep__row"><label class="control-label col-sm-3" for="chamadas_cep" id="chamadas_cep__label">CEP</label><div class="col-sm-9"><input class="form-control string" id="chamadas_cep" name="cep" type="text" value="" /><span class="help-block"></span></div></div><div class="form-group" id="chamadas_estado__row"><label class="control-label col-sm-3" for="chamadas_estado" id="chamadas_estado__label">UF (ESTADO)</label><div class="col-sm-9"><input class="form-control string" id="chamadas_estado" name="estado" type="text" value="" /><span class="help-block"></span></div></div><div class="form-group" id="chamadas_sistema__row"><label class="control-label col-sm-3" for="chamadas_sistema" id="chamadas_sistema__label">Sistema</label><div class="col-sm-9"><input class="form-control string" id="chamadas_sistema" name="sistema" type="text" value="" /><span class="help-block"></span></div></div><div class="form-group" id="chamadas_demanda__row"><label class="control-label col-sm-3" for="chamadas_demanda" id="chamadas_demanda__label">Demanda</label><div class="col-sm-9"><textarea class="text form-control" cols="40" id="chamadas_demanda" name="demanda" rows="10"></textarea><span class="help-block"></span></div></div><div class="form-group" id="submit_record__row"><div class="col-sm-9 col-sm-offset-3"><input class="btn btn-primary" type="submit" value="Submit" /></div></div></form>'
p3
sS'layer'
p4
S'/opt/web2py/applications/storecall/controllers/chamada.py'
p5
sS'code'
p6
S"estadouf = ('Acre/AC','Alagoas/AL','Amap\xc3\xa1/AP','Amazonas/AM','Bahia/BA','Cear\xc3\xa1/CE','Distrito Federal/DF','Esp\xc3\xadrito Santo/ES','Goi\xc3\xa1s/GO','Maranh\xc3\xa3o/MA','Mato Grosso/MT','Mato Grosso do Sul/MS','Minas Gerais/MG','Par\xc3\xa1/PA','Para\xc3\xadba/PB','Paran\xc3\xa1/PR','Pernambuco/PE','Piau\xc3\xad/PI','Rio de Janeiro/RJ','Rio Grande do Norte/RN','Rio Grande do Sul/RS','Rond\xc3\xb4nia/RO','Roraima/RR','Santa Catarina/SC','S\xc3\xa3o Paulo/SP','Sergipe/SE','Tocantins/TO')\ndef index():\n\tresponse.flash = T('Acionamentos')\n\treturn dict(message=T('Cadastre novos acionamentos'))\n#,fields=['protocolo','identificador','nome','email','telefone','cep','estado','sistema', 'data_acionamento', 'atendente_acionamento', 'atendente_protocolo', 'data_protocolo','demanda'],submit_button='Salvar'\ndef nova_chamada():\n\tform = SQLFORM(Chamadas)\n\tform.append(SQLFORM.factory(form,\n\t\tField('estado', label='Estados', requires=IS_IN_SET(range(1,27),estadouf, multiple=True))))\n\n\tif form.process().accepted:\n\t\tsession.flash = 'Novo acionamento registrado: %s' % form.vars.identificador\n\t\tredirect(URL('nova_chamada'))\n\telif form.errors:\n\t\tresponse.flash = 'Erros no formul\xc3\xa1rio!'\n\telse:\n\t\tif  not response.flash:\n\t\t\tresponse.flash = 'Preencha o formul\xc3\xa1rio!'\n\treturn dict(form=form)\n \ndef ver_chamada():\n\tgrid = SQLFORM.grid(Chamadas)\n\treturn dict(grid=grid)\n\t\nresponse._vars=response._caller(nova_chamada)\n"
p7
sS'snapshot'
p8
(dp9
sS'traceback'
p10
S'Traceback (most recent call last):\n  File "/opt/web2py/gluon/restricted.py", line 227, in restricted\n    exec ccode in environment\n  File "/opt/web2py/applications/storecall/controllers/chamada.py", line 25, in <module>\n  File "/opt/web2py/gluon/globals.py", line 417, in <lambda>\n    self._caller = lambda f: f()\n  File "/opt/web2py/applications/storecall/controllers/chamada.py", line 9, in nova_chamada\n    Field(\'estado\', label=\'Estados\', requires=IS_IN_SET(range(1,27),estadouf, multiple=True))))\n  File "/opt/web2py/gluon/sqlhtml.py", line 1808, in factory\n    return SQLFORM(DAL(None).define_table(table_name, *fields),\n  File "/opt/web2py/gluon/packages/dal/pydal/base.py", line 834, in define_table\n    table = self.lazy_define_table(tablename,*fields,**args)\n  File "/opt/web2py/gluon/packages/dal/pydal/base.py", line 851, in lazy_define_table\n    table = table_class(self, tablename, *fields, **args)\n  File "/opt/web2py/gluon/packages/dal/pydal/objects.py", line 299, in __init__\n    field\nSyntaxError: define_table argument is not a Field or Table: <form action="#" class="form-horizontal" enctype="multipart/form-data" method="post"><div class="form-group" id="chamadas_protocolo__row"><label class="readonly control-label col-sm-3" for="chamadas_protocolo" id="chamadas_protocolo__label">Protocolo</label><div class="col-sm-9">0000/000000000<span class="help-block"></span></div></div><div class="form-group" id="chamadas_data_acionamento__row"><label class="readonly control-label col-sm-3" for="chamadas_data_acionamento" id="chamadas_data_acionamento__label">Acionado em:</label><div class="col-sm-9">2016-10-02 16:14:35<span class="help-block"></span></div></div><div class="form-group" id="chamadas_atendente_acionamento__row"><label class="readonly control-label col-sm-3" for="chamadas_atendente_acionamento" id="chamadas_atendente_acionamento__label">Atendente acionado: </label><div class="col-sm-9">Eduardo de Atendimento (4)<span class="help-block"></span></div></div><div class="form-group" id="chamadas_identificador__row"><label class="control-label col-sm-3" for="chamadas_identificador" id="chamadas_identificador__label">Identificador(CPF/CNPJ)</label><div class="col-sm-9"><input class="form-control string" id="chamadas_identificador" name="identificador" type="text" value="" /><span class="help-block"></span></div></div><div class="form-group" id="chamadas_nome__row"><label class="control-label col-sm-3" for="chamadas_nome" id="chamadas_nome__label">Nome</label><div class="col-sm-9"><input class="form-control string" id="chamadas_nome" name="nome" type="text" value="" /><span class="help-block"></span></div></div><div class="form-group" id="chamadas_email__row"><label class="control-label col-sm-3" for="chamadas_email" id="chamadas_email__label">Email</label><div class="col-sm-9"><input class="form-control string" id="chamadas_email" name="email" type="text" value="" /><span class="help-block"></span></div></div><div class="form-group" id="chamadas_telefone__row"><label class="control-label col-sm-3" for="chamadas_telefone" id="chamadas_telefone__label">Telefone</label><div class="col-sm-9"><input class="form-control string" id="chamadas_telefone" name="telefone" type="text" value="" /><span class="help-block"></span></div></div><div class="form-group" id="chamadas_cep__row"><label class="control-label col-sm-3" for="chamadas_cep" id="chamadas_cep__label">CEP</label><div class="col-sm-9"><input class="form-control string" id="chamadas_cep" name="cep" type="text" value="" /><span class="help-block"></span></div></div><div class="form-group" id="chamadas_estado__row"><label class="control-label col-sm-3" for="chamadas_estado" id="chamadas_estado__label">UF (ESTADO)</label><div class="col-sm-9"><input class="form-control string" id="chamadas_estado" name="estado" type="text" value="" /><span class="help-block"></span></div></div><div class="form-group" id="chamadas_sistema__row"><label class="control-label col-sm-3" for="chamadas_sistema" id="chamadas_sistema__label">Sistema</label><div class="col-sm-9"><input class="form-control string" id="chamadas_sistema" name="sistema" type="text" value="" /><span class="help-block"></span></div></div><div class="form-group" id="chamadas_demanda__row"><label class="control-label col-sm-3" for="chamadas_demanda" id="chamadas_demanda__label">Demanda</label><div class="col-sm-9"><textarea class="text form-control" cols="40" id="chamadas_demanda" name="demanda" rows="10"></textarea><span class="help-block"></span></div></div><div class="form-group" id="submit_record__row"><div class="col-sm-9 col-sm-offset-3"><input class="btn btn-primary" type="submit" value="Submit" /></div></div></form>\n'
p11
s.