(dp1
S'output'
p2
S"<type 'exceptions.NameError'> name 'chamada' is not defined"
p3
sS'layer'
p4
S'/opt/web2py/applications/storecall/views/chamada/nova_chamada.html'
p5
sS'code'
p6
S'response.write(\'<!DOCTYPE html>\\n<!--[if (gt IE 9)|!(IE)]><!--> <html class="no-js" lang="\', escape=False)\nresponse.write(T.accepted_language or \'en\')\nresponse.write(\'"> <!--<![endif]-->\\n  <head>\\n    <meta charset="utf-8">\\n    <!-- www.phpied.com/conditional-comments-block-downloads/ -->\\n    <!-- Always force latest IE rendering engine\\n         (even in intranet) & Chrome Frame\\n         Remove this if you use the .htaccess -->\\n    <meta http-equiv="X-UA-Compatible" content="IE=edge\', escape=False)\nresponse.write(not request.is_local and \',chrome=1\' or \'\')\nresponse.write(\'">\\n    <!--  Mobile Viewport Fix\\n          j.mp/mobileviewport & davidbcalhoun.com/2010/viewport-metatag\\n          device-width: Occupy full width of the screen in its current orientation\\n          initial-scale = 1.0 retains dimensions instead of zooming out if page height > device height\\n          user-scalable = yes allows the user to zoom in -->\\n    <meta name="viewport" content="width=device-width, initial-scale=1.0">\\n    <title>\', escape=False)\nresponse.write(response.title or request.application)\nresponse.write(\'</title>\\n    <!-- http://dev.w3.org/html5/markup/meta.name.html -->\\n    <meta name="application-name" content="\', escape=False)\nresponse.write(request.application)\nresponse.write(\'">\\n    <!-- Speaking of Google, don\\\'t forget to set your site up:\\n         http://google.com/webmasters -->\\n    <meta name="google-site-verification" content="">\\n    <!-- include stylesheets -->\\n    <link rel="stylesheet" href="\', escape=False)\nresponse.write(URL(\'static\',\'css/bootstrap.min.css\'))\nresponse.write(\'"/>\\n    <link rel="stylesheet" href="\', escape=False)\nresponse.write(URL(\'static\',\'css/web2py-bootstrap3.css\'))\nresponse.write(\'"/>\\n    <link rel="shortcut icon" href="\', escape=False)\nresponse.write(URL(\'static\',\'images/favicon.ico\'))\nresponse.write(\'" type="image/x-icon">\\n    <link rel="apple-touch-icon" href="\', escape=False)\nresponse.write(URL(\'static\',\'images/favicon.png\'))\nresponse.write(\'">\\n    <!-- All JavaScript at the bottom, except for Modernizr which enables\\n         HTML5 elements & feature detects -->\\n    <script src="\', escape=False)\nresponse.write(URL(\'static\',\'js/modernizr-2.8.3.min.js\'))\nresponse.write(\'"></script>\\n    <!--[if lt IE 9]>\\n        <script src="\', escape=False)\nresponse.write(URL(\'static\',\'js/respond-1.4.2.min.js\'))\nresponse.write(\'"></script>\\n        <![endif]-->\\n    <!-- Favicons -->\\n    \', escape=False)\nresponse.write(\'<script type="text/javascript"><!--\\n    // These variables are used by the web2py_ajax_init function in web2py_ajax.js (which is loaded below).\\n    var w2p_ajax_confirm_message = "\', escape=False)\nresponse.write(T(\'Are you sure you want to delete this object?\'))\nresponse.write(\'";\\n    var w2p_ajax_disable_with_message = "\', escape=False)\nresponse.write(T(\'Working...\'))\nresponse.write(\'";\\n    var w2p_ajax_date_format = "\', escape=False)\nresponse.write(T(\'%Y-%m-%d\'))\nresponse.write(\'";\\n    var w2p_ajax_datetime_format = "\', escape=False)\nresponse.write(T(\'%Y-%m-%d %H:%M:%S\'))\nresponse.write(\'";\\n    var ajax_error_500 = \\\'\', escape=False)\nresponse.write(T.M(\'An error occured, please [[reload %s]] the page\') % URL(args=request.args, vars=request.get_vars))\nresponse.write("\'\\n    //--></script>\\n", escape=False)\nresponse.files.insert(0,URL(\'static\',\'js/jquery.js\'))\nresponse.files.insert(1,URL(\'static\',\'css/calendar.css\'))\nresponse.files.insert(2,URL(\'static\',\'js/calendar.js\'))\nresponse.files.insert(3,URL(\'static\',\'js/web2py.js\'))\nresponse.include_meta()\nresponse.include_files()\nresponse.write(\'\\n\', escape=False)\nresponse.write(\' <!-- this includes jquery.js, calendar.js/.css and web2py.js -->\\n    \', escape=False)\nresponse.write(\'\\n    \', escape=False)\n# using sidebars need to know what sidebar you want to use\nmc0 = \'col-md-12\'\nmc1 = \'col-md-9\'\nmc2 = \'col-md-6\'\nleft_sidebar_enabled = globals().get(\'left_sidebar_enabled\', False)\nright_sidebar_enabled = globals().get(\'right_sidebar_enabled\', False)\nmiddle_column = {0: mc0, 1: mc1, 2: mc2}[\n(left_sidebar_enabled and 1 or 0)+(right_sidebar_enabled and 1 or 0)]\nresponse.write(\'\\n  </head>\\n  <body>\\n    <!--[if lt IE 8]><p class="browserupgrade">You are using an <strong>outdated</strong> browser. Please <a href="http://browsehappy.com/">upgrade your browser</a> to improve your experience.</p><![endif]-->\\n    <div class="w2p_flash alert alert-dismissable">\', escape=False)\nresponse.write(response.flash or \'\')\nresponse.write(\'</div>\\n    <!-- Navbar ======================================= -->\\n    <nav class="navbar navbar-default navbar-fixed-top" role="navigation">\\n      <div class="container-fluid">\\n        <div class="navbar-header">\\n          <button type="button" class="navbar-toggle" data-toggle="collapse" data-target=".navbar-collapse">\\n            <span class="sr-only">Toggle navigation</span>\\n            <span class="icon-bar"></span>\\n            <span class="icon-bar"></span>\\n            <span class="icon-bar"></span>\\n          </button>\\n          \', escape=False)\nresponse.write(response.logo or \'\')\nresponse.write(\'\\n        </div>\\n        <div class="collapse navbar-collapse navbar-ex1-collapse">\\n          <ul class="nav navbar-nav navbar-right">\\n            \', escape=False)\nresponse.write(\'auth\' in globals() and auth.navbar(\'Welcome\',mode=\'dropdown\') or \'\')\nresponse.write(\'\\n          </ul>\\n          \', escape=False)\nif response.menusuperior:\n    response.write(\'\\n          \', escape=False)\n    response.write(MENU(response.menusuperior, _class=\'nav navbar-nav\',li_class=\'dropdown\',ul_class=\'dropdown-menu\'))\n    response.write(\'\\n          \', escape=False)\n    pass\nresponse.write(\'\\n        </div>\\n      </div>\\n    </nav>\\n    <!-- Masthead ===================================== -->   \\n    \', escape=False)\nresponse.write(\'\\n    \', escape=False)\nresponse.write(\'\\n  \', escape=False)\nif chamada.acionamento_total:\n    response.write(\'\\n    <div class="btn-group btn-group-justified">\\n      <a href=\', escape=False)\n    response.write(URL(request.application, c=\'chamada\', f=\'nova_chamada\'))\n    response.write(\' class="btn btn-primary"><span class=\\\'glyphicon glyphicon-earphone\\\'></span> Nova Chamada</a>\\n      <a href=\', escape=False)\n    response.write(URL(request.application, c=\'chamada\', f=\'protocolar_chamada\'))\n    response.write(\' class="btn btn-primary"><span class=\\\'glyphicon glyphicon-folder-open\\\'></span> Protocolar Chamadas <span class="badge">\', escape=False)\n    response.write(chamada.acionamento_total)\n    response.write(\'</span></a>\\n      <a href="#" class="btn btn-primary"><span class=\\\'glyphicon glyphicon-list-alt\\\'></span> Relat\\xc3\\xb3rio</a>\\n    </div>\\n  \', escape=False)\n    pass\nresponse.write(\' \\n\\n    <!-- Main ========================================= -->\\n    <!-- Begin page content -->\\n    <div class="container-fluid main-container">\\n      \', escape=False)\nif left_sidebar_enabled:\n    response.write(\'\\n        <div class="col-md-3 left-sidebar">\\n            \', escape=False)\n    response.write(\'\\n            <h3>Left Sidebar</h3>\\n            <p></p>\\n            \', escape=False)\n    response.write(\'\\n        </div>\\n      \', escape=False)\n    pass\nresponse.write(\'\\n\\n      <div class="\', escape=False)\nresponse.write(middle_column)\nresponse.write(\'">\\n        \', escape=False)\nresponse.write(\'\\n        \', escape=False)\nresponse.write(\'\\n<h1>Registrar chamadas</h1>\\n\', escape=False)\nresponse.write(form)\nresponse.write(\'\\n\\n\', escape=False)\n\'\'\'\nresponse.write(\'\\n\', escape=False)\nresponse.write(form.custom.begin)\nresponse.write(\'\\n<!--Protocolo -->\\n\', escape=False)\nform.elements(\'#chamadas_protocolo\')[0][\'_placerholder\'] = "Protocolo"\nresponse.write(\'\\n\', escape=False)\nform.elements(\'#chamadas_protocolo\')[0][\'_disabled\'] = "true"\nresponse.write(\'\\n\', escape=False)\nresponse.write(LABEL(\'Protocolo: \', _class=\'test\', _id=\'protocolo\'))\nresponse.write(\'\\n\', escape=False)\nresponse.write(form.custom.widget.protocolo)\nresponse.write(\'\\n<!--data_acionamento-->\\n\', escape=False)\nform.elements(\'#chamadas_data_acionamento\')[0][\'_placerholder\'] = "00/00/00"\nresponse.write(\'\\n\', escape=False)\nform.elements(\'#chamadas_data_acionamento\')[0][\'_disabled\'] = "true"\nresponse.write(\'\\n\', escape=False)\nresponse.write(LABEL(\'Data acionamento: \', _class=\'test\', _id=\'data_acionamento\'))\nresponse.write(\'\\n\', escape=False)\nresponse.write(form.custom.widget.data_acionamento)\nresponse.write(\'\\n<!--atendente_acionamento-->\\n\', escape=False)\nform.elements(\'#chamadas_atendente_acionamento\')[0][\'_placerholder\'] = "Nome"\nresponse.write(\'\\n\', escape=False)\nform.elements(\'#chamadas_atendente_acionamento\')[0][\'_disabled\'] = "true"\nresponse.write(\'\\n\', escape=False)\nresponse.write(LABEL(\'Atendente acionamento: \', _class=\'test\', _id=\'atendente_acionamento\'))\nresponse.write(\'\\n\', escape=False)\nresponse.write(form.custom.widget.atendente_acionamento)\nresponse.write(\'\\n<!--data_protocolo-->\\n\', escape=False)\nform.elements(\'#chamadas_data_protocolo\')[0][\'_placerholder\'] = "Data:"\nresponse.write(\'\\n\', escape=False)\nform.elements(\'#chamadas_data_protocolo\')[0][\'_disabled\'] = "true"\nresponse.write(\'\\n\', escape=False)\nresponse.write(LABEL(\'Data protocolo: \', _class=\'test\', _id=\'data_protocolo\'))\nresponse.write(\'\\n\', escape=False)\nresponse.write(form.custom.widget.data_protocolo)\nresponse.write(\'\\n<!--atendente_protocolo-->\\n\', escape=False)\nform.elements(\'#chamadas_atendente_protocolo\')[0][\'_placerholder\'] = "Nome"\nresponse.write(\'\\n\', escape=False)\nform.elements(\'#chamadas_atendente_protocolo\')[0][\'_disabled\'] = "true"\nresponse.write(\'\\n\', escape=False)\nresponse.write(LABEL(\'Atendente protocolo: \', _class=\'test\', _id=\'atendente_protocolo\'))\nresponse.write(\'\\n\', escape=False)\nresponse.write(form.custom.widget.atendente_protocolo)\nresponse.write(\'\\n<!--Nome -->\\n\', escape=False)\nform.elements(\'#chamadas_nome\')[0][\'_placerholder\'] = "nome"\nresponse.write(\'\\n\', escape=False)\nresponse.write(LABEL(\'Nome: \', _class=\'test\', _id=\'nome\'))\nresponse.write(\'\\n\', escape=False)\nresponse.write(form.custom.widget.nome)\nresponse.write(\'\\n<!--Email -->\\n\', escape=False)\nform.elements(\'#chamadas_email\')[0][\'_placerholder\'] = "email"\nresponse.write(\'\\n\', escape=False)\nform.elements(\'#chamadas_email\')[0][\'_type\'] = "email"\nresponse.write(\'\\n\', escape=False)\nresponse.write(LABEL(\'Email: \', _class=\'test\', _id=\'email\'))\nresponse.write(\'\\n\', escape=False)\nresponse.write(form.custom.widget.email)\nresponse.write(\'\\n<!--Telefone -->\\n\', escape=False)\nform.elements(\'#chamadas_telefone\')[0][\'_placeholder\'] = "DDD + N\xc3\xbamero"\nresponse.write(\'\\n\', escape=False)\nform.elements(\'#chamadas_telefone\')[0][\'_type\'] = "tel"\nresponse.write(\'\\n\', escape=False)\nresponse.write(LABEL(\'Telefone: \', _class=\'test\', _id=\'telefone\'))\nresponse.write(\'\\n\', escape=False)\nresponse.write(form.custom.widget.telefone)\nresponse.write(\'\\n<!--CEP -->\\n\', escape=False)\nform.elements(\'#chamadas_cep\')[0][\'_placerholder\'] = "cep"\nresponse.write(\'\\n\', escape=False)\nresponse.write(LABEL(\'CEP: \', _class=\'test\', _id=\'cep\'))\nresponse.write(\'\\n\', escape=False)\nresponse.write(form.custom.widget.cep)\nresponse.write(\'\\n<!--Estado -->\\n\', escape=False)\nform.elements(\'#chamadas_estado\')[0][\'_placerholder\'] = "Estado"\nresponse.write(\'\\n\', escape=False)\nresponse.write(LABEL(\'Estado: \', _class=\'test\', _id=\'estado\'))\nresponse.write(\'\\n\', escape=False)\nresponse.write(form.custom.widget.estado)\nresponse.write(\'\\n<!--Sistema -->\\n\', escape=False)\nform.elements(\'#chamadas_sistema\')[0][\'_placerholder\'] = "Sistema"\nresponse.write(\'\\n\', escape=False)\nresponse.write(LABEL(\'Sistema: \', _class=\'test\', _id=\'sistema\'))\nresponse.write(\'\\n\', escape=False)\nresponse.write(form.custom.widget.sistema)\nresponse.write(\'\\n<!--Demanda -->\\n\', escape=False)\nform.elements(\'#chamadas_demanda\')[0][\'_placerholder\'] = "Demanda"\nresponse.write(\'\\n\', escape=False)\nresponse.write(LABEL(\'Demanda: \', _class=\'test\', _id=\'demanda\'))\nresponse.write(\'\\n\', escape=False)\nresponse.write(form.custom.widget.demanda)\nresponse.write(\'\\n\\n\', escape=False)\nresponse.write(form.custom.submit)\nresponse.write(\'\\n\', escape=False)\nresponse.write(form.custom.end)\nresponse.write(\'\\n\', escape=False)\n\'\'\'\nresponse.write(\'\\n        \', escape=False)\nif False:\n    response.write(\'\\n        \', escape=False)\n    response.write(DIV(TABLE(THEAD(TR(TH(\'Id\'),TH(\'Protocolo\'),TH(\'Atendente Acionamento\'),TH(\'Data Protocolo\'),TH(\'Identificador\'),TH(\'Sistema\')), _class=\'thead-inverse\'), TBODY(TR(TH(row.id, _scope="row"),TD(row.protocolo),TD(row.atendente_acionamento),TD(row.data_protocolo),TD(row.identificador),TD(row.sistema))),_class=\'table table-bordered\'), _class=\'table table-responsive\'))\n    response.write(\'\\n        \', escape=False)\n    pass\nresponse.write(\'\\n        \', escape=False)\nresponse.write(\'\\n\', escape=False)\n\'\'\'\nresponse.write(\'\\n  \', escape=False)\nif page:\n    response.write(\'\\n    <a href="\', escape=False)\n    response.write(URL(args=[page-1]))\n    response.write(\'">Voltar</a>\\n  \', escape=False)\n    pass\nresponse.write(\'\\n  \', escape=False)\nif len(rows)>items_per_page:\n    response.write(\'\\n    <a href="\', escape=False)\n    response.write(URL(args=[page+1]))\n    response.write(\'">Avan\\xc3\\xa7ar</a>\\n  \', escape=False)\n    pass\nresponse.write(\'\\n  \', escape=False)\n\'\'\'\nresponse.write(\'\\n\\n\\n\\n      </div>\\n\\n      \', escape=False)\nif right_sidebar_enabled:\n    response.write(\'\\n        <div class="col-md-3">\\n            \', escape=False)\n    response.write(\'\\n            <h3>Right Sidebar</h3>\\n            <p></p>\\n            \', escape=False)\n    response.write(\'\\n        </div>\\n      \', escape=False)\n    pass\nresponse.write(\'\\n\\n    </div>\\n\\n    \', escape=False)\nresponse.write(\' <!-- this is default footer -->      \\n    <footer class="footer">\\n      <div class="container-fluid">\\n        <div class="copyright pull-left">\', escape=False)\nresponse.write(T(\'Copyright\'))\nresponse.write(\' &#169; \', escape=False)\nresponse.write(request.now.year)\nresponse.write(\'</div>\\n          <div id="poweredBy" class="pull-right">\\n            \', escape=False)\nresponse.write(T(\'Powered by\'))\nresponse.write(\'\\n            <a href="http://www.web2py.com/">web2py</a>\\n          </div>\\n      </div>\\n    </footer>\\n    \', escape=False)\nresponse.write(\'\\n    <!-- The javascript =============================== -->\\n    <script src="\', escape=False)\nresponse.write(URL(\'static\',\'js/bootstrap.min.js\'))\nresponse.write(\'"></script>\\n    <script src="\', escape=False)\nresponse.write(URL(\'static\',\'js/web2py-bootstrap3.js\'))\nresponse.write(\'"></script>\\n    \', escape=False)\nresponse.write(\'\\n    \', escape=False)\nif response.google_analytics_id:\n    response.write(\'\\n    <!-- Analytics ==================================== -->\\n    <script src="\', escape=False)\n    response.write(URL(\'static\',\'js/analytics.min.js\'))\n    response.write(\'"></script>\\n    <script type="text/javascript">\\n      analytics.initialize({\\n      \\\'Google Analytics\\\':{trackingId:\\\'\', escape=False)\n    response.write(response.google_analytics_id)\n    response.write("\'}\\n      });\\n    </script>\\n    ", escape=False)\n    pass\nresponse.write(\'\\n    <!-- Share ============================y============ -->\\n    <script src="\', escape=False)\nresponse.write(URL(\'static\',\'js/share.js\',vars=dict(static=URL(\'static\',\'images\'))))\nresponse.write(\'"></script>\\n  </body>\\n</html>\\n\', escape=False)'
p7
sS'snapshot'
p8
(dp9
sS'traceback'
p10
S'Traceback (most recent call last):\n  File "/opt/web2py/gluon/restricted.py", line 227, in restricted\n    exec ccode in environment\n  File "/opt/web2py/applications/storecall/views/chamada/nova_chamada.html", line 65, in <module>\n    {{\'\'\'}}\nNameError: name \'chamada\' is not defined\n'
p11
s.